Archive member included to satisfy reference by file (symbol)

build/cooja/mtype91.a(simEnvChange.o)
                              build/cooja/mtype91.o (simDontFallAsleep)
build/cooja/mtype91.a(cooja_mt.o)
                              build/cooja/mtype91.o (cooja_mt_start)
build/cooja/mtype91.a(cooja_mtarch.o)
                              build/cooja/mtype91.a(cooja_mt.o) (cooja_mtarch_start)
build/cooja/mtype91.a(rtimer-arch.o)
                              build/cooja/mtype91.o (rtimer_arch_check)
build/cooja/mtype91.a(beep.o)
                              build/cooja/mtype91.o (beep_interface)
build/cooja/mtype91.a(leds-arch.o)
                              build/cooja/mtype91.o (leds_interface)
build/cooja/mtype91.a(moteid.o)
                              build/cooja/mtype91.o (moteid_interface)
build/cooja/mtype91.a(pir-sensor.o)
                              build/cooja/mtype91.o (pir_interface)
build/cooja/mtype91.a(rs232.o)
                              build/cooja/mtype91.o (rs232_interface)
build/cooja/mtype91.a(vib-sensor.o)
                              build/cooja/mtype91.o (vib_interface)
build/cooja/mtype91.a(clock.o)
                              build/cooja/mtype91.o (clock_interface)
build/cooja/mtype91.a(cooja-log.o)
                              build/cooja/mtype91.o (simlog_interface)
build/cooja/mtype91.a(cfs-cooja.o)
                              build/cooja/mtype91.o (cfs_interface)
build/cooja/mtype91.a(cooja-radio.o)
                              build/cooja/mtype91.o (radio_interface)
build/cooja/mtype91.a(eeprom.o)
                              build/cooja/mtype91.o (eeprom_interface)
build/cooja/mtype91.a(random.o)
                              build/cooja/mtype91.a(moteid.o) (random_init)
build/cooja/mtype91.a(sensors.o)
                              build/cooja/mtype91.a(pir-sensor.o) (sensors_changed)
build/cooja/mtype91.a(leds.o)
                              build/cooja/mtype91.a(leds-arch.o) (leds_get)
build/cooja/mtype91.a(gpio-hal-arch.o)
                              build/cooja/mtype91.a(leds-arch.o) (gpio_hal_arch_register_pin_callback)
build/cooja/mtype91.a(buttons.o)
                              build/cooja/mtype91.o (button_interface)
build/cooja/mtype91.a(res_humidity.o)
                              humidity_sensor.o (humidity)
build/cooja/mtype91.a(coap-blocking-a)
                              humidity_sensor.o (coap_blocking_request)
build/cooja/mtype91.a(coap-engine.o)
                              humidity_sensor.o (coap_activate_resource)
build/cooja/mtype91.a(coap-res-well-k)
                              build/cooja/mtype91.a(coap-engine.o) (res_well_known_core)
build/cooja/mtype91.a(coap-observe.o)
                              build/cooja/mtype91.a(coap-engine.o) (coap_remove_observer_by_mid)
build/cooja/mtype91.a(coap-transactio)
                              build/cooja/mtype91.a(coap-blocking-a) (coap_send_transaction)
build/cooja/mtype91.a(coap-uip.o)
                              build/cooja/mtype91.a(coap-observe.o) (coap_endpoint_copy)
build/cooja/mtype91.a(coap-timer.o)
                              build/cooja/mtype91.a(coap-transactio) (coap_timer_stop)
build/cooja/mtype91.a(coap.o)
                              build/cooja/mtype91.a(coap-engine.o) (coap_status_code)
build/cooja/mtype91.a(contiki-main.o)
                              build/cooja/mtype91.o (main)
build/cooja/mtype91.a(autostart.o)
                              build/cooja/mtype91.a(contiki-main.o) (autostart_start)
build/cooja/mtype91.a(ctimer.o)
                              build/cooja/mtype91.a(contiki-main.o) (ctimer_init)
build/cooja/mtype91.a(energest.o)
                              build/cooja/mtype91.a(contiki-main.o) (energest_init)
build/cooja/mtype91.a(etimer.o)
                              build/cooja/mtype91.a(contiki-main.o) (etimer_process)
build/cooja/mtype91.a(log.o)  build/cooja/mtype91.a(contiki-main.o) (curr_log_level_main)
build/cooja/mtype91.a(rtimer.o)
                              build/cooja/mtype91.a(contiki-main.o) (rtimer_init)
build/cooja/mtype91.a(node-id.o)
                              build/cooja/mtype91.a(contiki-main.o) (node_id)
build/cooja/mtype91.a(process.o)
                              build/cooja/mtype91.a(coap-blocking-a) (process_current)
build/cooja/mtype91.a(timer.o)
                              build/cooja/mtype91.a(etimer.o) (timer_set)
build/cooja/mtype91.a(list.o)
                              build/cooja/mtype91.a(coap-engine.o) (list_init)
build/cooja/mtype91.a(memb.o)
                              build/cooja/mtype91.a(coap-observe.o) (memb_alloc)
build/cooja/mtype91.a(button-hal.o)
                              build/cooja/mtype91.o (button_hal_init)
build/cooja/mtype91.a(serial-line.o)
                              build/cooja/mtype91.a(rs232.o) (serial_line_input_byte)
build/cooja/mtype91.a(gpio-hal.o)
                              build/cooja/mtype91.a(button-hal.o) (gpio_hal_register_handler)
build/cooja/mtype91.a(queuebuf.o)
                              build/cooja/mtype91.a(contiki-main.o) (queuebuf_init)
build/cooja/mtype91.a(packetbuf.o)
                              build/cooja/mtype91.a(cooja-radio.o) (packetbuf_clear)
build/cooja/mtype91.a(netstack.o)
                              build/cooja/mtype91.a(contiki-main.o) (netstack_init)
build/cooja/mtype91.a(linkaddr.o)
                              build/cooja/mtype91.a(contiki-main.o) (linkaddr_node_addr)
build/cooja/mtype91.a(csma.o)
                              build/cooja/mtype91.a(cooja-radio.o) (csma_driver)
build/cooja/mtype91.a(csma-output.o)
                              build/cooja/mtype91.a(csma.o) (csma_output_packet)
build/cooja/mtype91.a(uip-ds6.o)
                              build/cooja/mtype91.a(contiki-main.o) (uip_ds6_get_link_local)
build/cooja/mtype91.a(tcpip.o)
                              build/cooja/mtype91.a(coap-uip.o) (tcpip_event)
build/cooja/mtype91.a(uip-udp-packet.)
                              build/cooja/mtype91.a(coap-uip.o) (uip_udp_packet_sendto)
build/cooja/mtype91.a(uip-ds6-route.o)
                              build/cooja/mtype91.a(uip-ds6.o) (uip_ds6_route_init)
build/cooja/mtype91.a(uip-ds6-nbr.o)
                              build/cooja/mtype91.a(uip-ds6.o) (uip_ds6_neighbors_init)
build/cooja/mtype91.a(uip6.o)
                              build/cooja/mtype91.a(contiki-main.o) (uip_lladdr)
build/cooja/mtype91.a(uip-nd6.o)
                              build/cooja/mtype91.a(uip6.o) (uip_nd6_init)
build/cooja/mtype91.a(sicslowpan.o)
                              build/cooja/mtype91.a(contiki-main.o) (sicslowpan_driver)
build/cooja/mtype91.a(uiplib.o)
                              build/cooja/mtype91.a(coap-uip.o) (uiplib_ip6addrconv)
build/cooja/mtype91.a(rpl.o)  build/cooja/mtype91.a(coap-uip.o) (rpl_lite_driver)
build/cooja/mtype91.a(rpl-icmp6.o)
                              build/cooja/mtype91.a(rpl.o) (rpl_icmp6_init)
build/cooja/mtype91.a(rpl-dag-root.o)
                              build/cooja/mtype91.a(rpl.o) (rpl_dag_root_is_root)
build/cooja/mtype91.a(watchdog.o)
                              build/cooja/mtype91.a(contiki-main.o) (watchdog_init)
build/cooja/mtype91.a(int-master.o)
                              build/cooja/mtype91.a(button-hal.o) (int_master_read_and_disable)
build/cooja/mtype91.a(coap-timer-defa)
                              build/cooja/mtype91.a(coap-timer.o) (coap_timer_default_driver)
build/cooja/mtype91.a(stimer.o)
                              build/cooja/mtype91.a(uip-ds6.o) (stimer_set)
build/cooja/mtype91.a(ringbuf.o)
                              build/cooja/mtype91.a(serial-line.o) (ringbuf_init)
build/cooja/mtype91.a(assert.o)
                              build/cooja/mtype91.a(csma-output.o) (_xassert)
build/cooja/mtype91.a(nbr-table.o)
                              build/cooja/mtype91.a(uip-ds6-route.o) (nbr_table_register)
build/cooja/mtype91.a(link-stats.o)
                              build/cooja/mtype91.a(sicslowpan.o) (link_stats_packet_sent)
build/cooja/mtype91.a(mac-sequence.o)
                              build/cooja/mtype91.a(csma.o) (mac_sequence_is_duplicate)
build/cooja/mtype91.a(mac.o)  build/cooja/mtype91.a(csma-output.o) (mac_call_sent_callback)
build/cooja/mtype91.a(framer-802154.o)
                              build/cooja/mtype91.a(csma.o) (framer_802154)
build/cooja/mtype91.a(frame802154.o)
                              build/cooja/mtype91.a(framer-802154.o) (frame802154_get_pan_id)
build/cooja/mtype91.a(csma-security.o)
                              build/cooja/mtype91.a(csma-output.o) (csma_security_create_frame)
build/cooja/mtype91.a(uipbuf.o)
                              build/cooja/mtype91.a(tcpip.o) (uipbuf_clear)
build/cooja/mtype91.a(uip-icmp6.o)
                              build/cooja/mtype91.a(uip6.o) (uip_icmp6_input)
build/cooja/mtype91.a(uip-sr.o)
                              build/cooja/mtype91.a(rpl-dag-root.o) (uip_sr_num_nodes)
build/cooja/mtype91.a(uip-packetqueue)
                              build/cooja/mtype91.a(uip-ds6-nbr.o) (uip_packetqueue_new)
build/cooja/mtype91.a(rpl-nbr-policy.)
                              build/cooja/mtype91.a(nbr-table.o) (rpl_nbr_policy_find_removable)
build/cooja/mtype91.a(rpl-neighbor.o)
                              build/cooja/mtype91.a(rpl-icmp6.o) (rpl_neighbor_get_ipaddr)
build/cooja/mtype91.a(rpl-dag.o)
                              build/cooja/mtype91.a(rpl.o) (curr_instance)
build/cooja/mtype91.a(rpl-timers.o)
                              build/cooja/mtype91.a(rpl-dag.o) (rpl_timers_schedule_periodic_dis)
build/cooja/mtype91.a(rpl-ext-header.)
                              build/cooja/mtype91.a(rpl.o) (rpl_ext_header_srh_get_next_hop)
build/cooja/mtype91.a(rpl-mrhof.o)
                              build/cooja/mtype91.a(rpl-dag.o) (rpl_mrhof)
/usr/lib/gcc/i686-linux-gnu/5/libgcc.a(_udivdi3.o)
                              build/cooja/mtype91.a(coap-timer-defa) (__udivdi3)

Allocating common symbols
Common symbol       size              file

simButtonIsDown     0x1               build/cooja/mtype91.a(buttons.o)
simOutDataBuffer    0x7d              build/cooja/mtype91.a(cooja-radio.o)
uip_ds6_prefix_list
                    0x60              build/cooja/mtype91.a(uip-ds6.o)
linkaddr_node_addr  0x8               build/cooja/mtype91.a(linkaddr.o)
simSerialReceivingFlag
                    0x1               build/cooja/mtype91.a(rs232.o)
simEEPROMData       0x400             build/cooja/mtype91.a(eeprom.o)
periodic_timer      0x20              build/cooja/mtype91.a(link-stats.o)
simLoggedLength     0x4               build/cooja/mtype91.a(cooja-log.o)
simSerialReceivingLength
                    0x4               build/cooja/mtype91.a(rs232.o)
simEtimerPending    0x4               build/cooja/mtype91.a(simEnvChange.o)
uip_slen            0x2               build/cooja/mtype91.a(uip6.o)
uip_ds6_timer_periodic
                    0x10              build/cooja/mtype91.a(uip-ds6.o)
eb_per_time_source  0x18              build/cooja/mtype91.a(contiki-main.o)
unicast_per_neighbor_rpl_storing
                    0x18              build/cooja/mtype91.a(contiki-main.o)
simVibChanged       0x1               build/cooja/mtype91.a(vib-sensor.o)
simRtimerPending    0x4               build/cooja/mtype91.a(rtimer-arch.o)
button_hal_periodic_event
                    0x1               build/cooja/mtype91.a(button-hal.o)
uip_ds6_netif_addr_list_offset
                    0x1               build/cooja/mtype91.a(uip-ds6.o)
uip_lladdr          0x8               build/cooja/mtype91.a(uip6.o)
button_hal_press_event
                    0x1               build/cooja/mtype91.a(button-hal.o)
simProcessRunValue  0x4               build/cooja/mtype91.a(simEnvChange.o)
serial_line_event_message
                    0x1               build/cooja/mtype91.a(serial-line.o)
uip_appdata         0x4               build/cooja/mtype91.a(uip6.o)
TIME                0x4               humidity_sensor.o
referenceVar        0x4               build/cooja/mtype91.o
simCurrentTime      0x4               build/cooja/mtype91.a(clock.o)
simVibIsActive      0x1               build/cooja/mtype91.a(vib-sensor.o)
unicast_per_neighbor_rpl_ns
                    0x18              build/cooja/mtype91.a(contiki-main.o)
uip_ds6_if          0xf8              build/cooja/mtype91.a(uip-ds6.o)
uip_flags           0x1               build/cooja/mtype91.a(uip6.o)
uip_ds6_timer_ra    0x8               build/cooja/mtype91.a(uip-ds6.o)
default_common      0x18              build/cooja/mtype91.a(contiki-main.o)
simSerialReceivingData
                    0x800             build/cooja/mtype91.a(rs232.o)
simLoggedFlag       0x1               build/cooja/mtype91.a(cooja-log.o)
packetbuf_attrs     0x1a              build/cooja/mtype91.a(packetbuf.o)
uip_ds6_addr_size   0x1               build/cooja/mtype91.a(uip-ds6.o)
uip_aligned_buf     0xf0              build/cooja/mtype91.a(uip6.o)
simRtimerCurrentTicks
                    0x8               build/cooja/mtype91.a(rtimer-arch.o)
simRandomSeed       0x4               build/cooja/mtype91.a(moteid.o)
rpl_multicast_addr  0x10              build/cooja/mtype91.a(rpl.o)
simLoggedData       0x2000            build/cooja/mtype91.a(cooja-log.o)
simEtimerNextExpirationTime
                    0x4               build/cooja/mtype91.a(simEnvChange.o)
uip_len             0x2               build/cooja/mtype91.a(uip6.o)
simButtonChanged    0x1               build/cooja/mtype91.a(buttons.o)
simRtimerNextExpirationTime
                    0x8               build/cooja/mtype91.a(rtimer-arch.o)
simPirIsActive      0x1               build/cooja/mtype91.a(pir-sensor.o)
simInDataBuffer     0x7d              build/cooja/mtype91.a(cooja-radio.o)
simPirChanged       0x1               build/cooja/mtype91.a(pir-sensor.o)
simBeeped           0x1               build/cooja/mtype91.a(beep.o)
tcpip_event         0x1               build/cooja/mtype91.a(tcpip.o)
uip_sappdata        0x4               build/cooja/mtype91.a(uip6.o)
sensors_event       0x1               build/cooja/mtype91.a(sensors.o)
uip_udp_conns       0x100             build/cooja/mtype91.a(uip6.o)
button_hal_release_event
                    0x1               build/cooja/mtype91.a(button-hal.o)
packetbuf_addrs     0x10              build/cooja/mtype91.a(packetbuf.o)
uip_udp_conn        0x4               build/cooja/mtype91.a(uip6.o)
simMoteIDChanged    0x1               build/cooja/mtype91.a(moteid.o)
sensors_flags       0x4               build/cooja/mtype91.o
curr_instance       0x164             build/cooja/mtype91.a(rpl-dag.o)
simMoteID           0x4               build/cooja/mtype91.a(moteid.o)
uip_conn            0x4               build/cooja/mtype91.a(uip6.o)

Discarded input sections

 .note.GNU-stack
                0x0000000000000000        0x0 /usr/lib/gcc/i686-linux-gnu/5/../../../i386-linux-gnu/crti.o
 .group         0x0000000000000000        0x8 /usr/lib/gcc/i686-linux-gnu/5/crtbeginS.o
 .group         0x0000000000000000        0x8 /usr/lib/gcc/i686-linux-gnu/5/crtbeginS.o
 .text.__x86.get_pc_thunk.bx
                0x0000000000000000        0x4 /usr/lib/gcc/i686-linux-gnu/5/crtbeginS.o
 .note.GNU-stack
                0x0000000000000000        0x0 /usr/lib/gcc/i686-linux-gnu/5/crtbeginS.o
 .note.GNU-stack
                0x0000000000000000        0x0 humidity_sensor.o
 .note.GNU-stack
                0x0000000000000000        0x0 build/cooja/mtype91.o
 .note.GNU-stack
                0x0000000000000000        0x0 build/cooja/mtype91.a(simEnvChange.o)
 .note.GNU-stack
                0x0000000000000000        0x0 build/cooja/mtype91.a(cooja_mt.o)
 .note.GNU-stack
                0x0000000000000000        0x0 build/cooja/mtype91.a(cooja_mtarch.o)
 .note.GNU-stack
                0x0000000000000000        0x0 build/cooja/mtype91.a(rtimer-arch.o)
 .note.GNU-stack
                0x0000000000000000        0x0 build/cooja/mtype91.a(beep.o)
 .note.GNU-stack
                0x0000000000000000        0x0 build/cooja/mtype91.a(leds-arch.o)
 .note.GNU-stack
                0x0000000000000000        0x0 build/cooja/mtype91.a(moteid.o)
 .note.GNU-stack
                0x0000000000000000        0x0 build/cooja/mtype91.a(pir-sensor.o)
 .note.GNU-stack
                0x0000000000000000        0x0 build/cooja/mtype91.a(rs232.o)
 .note.GNU-stack
                0x0000000000000000        0x0 build/cooja/mtype91.a(vib-sensor.o)
 .note.GNU-stack
                0x0000000000000000        0x0 build/cooja/mtype91.a(clock.o)
 .note.GNU-stack
                0x0000000000000000        0x0 build/cooja/mtype91.a(cooja-log.o)
 .note.GNU-stack
                0x0000000000000000        0x0 build/cooja/mtype91.a(cfs-cooja.o)
 .note.GNU-stack
                0x0000000000000000        0x0 build/cooja/mtype91.a(cooja-radio.o)
 .note.GNU-stack
                0x0000000000000000        0x0 build/cooja/mtype91.a(eeprom.o)
 .note.GNU-stack
                0x0000000000000000        0x0 build/cooja/mtype91.a(random.o)
 .note.GNU-stack
                0x0000000000000000        0x0 build/cooja/mtype91.a(sensors.o)
 .note.GNU-stack
                0x0000000000000000        0x0 build/cooja/mtype91.a(leds.o)
 .note.GNU-stack
                0x0000000000000000        0x0 build/cooja/mtype91.a(gpio-hal-arch.o)
 .note.GNU-stack
                0x0000000000000000        0x0 build/cooja/mtype91.a(buttons.o)
 .note.GNU-stack
                0x0000000000000000        0x0 build/cooja/mtype91.a(res_humidity.o)
 .note.GNU-stack
                0x0000000000000000        0x0 build/cooja/mtype91.a(coap-blocking-a)
 .note.GNU-stack
                0x0000000000000000        0x0 build/cooja/mtype91.a(coap-engine.o)
 .note.GNU-stack
                0x0000000000000000        0x0 build/cooja/mtype91.a(coap-res-well-k)
 .note.GNU-stack
                0x0000000000000000        0x0 build/cooja/mtype91.a(coap-observe.o)
 .note.GNU-stack
                0x0000000000000000        0x0 build/cooja/mtype91.a(coap-transactio)
 .note.GNU-stack
                0x0000000000000000        0x0 build/cooja/mtype91.a(coap-uip.o)
 .note.GNU-stack
                0x0000000000000000        0x0 build/cooja/mtype91.a(coap-timer.o)
 .note.GNU-stack
                0x0000000000000000        0x0 build/cooja/mtype91.a(coap.o)
 .note.GNU-stack
                0x0000000000000000        0x0 build/cooja/mtype91.a(contiki-main.o)
 .note.GNU-stack
                0x0000000000000000        0x0 build/cooja/mtype91.a(autostart.o)
 .note.GNU-stack
                0x0000000000000000        0x0 build/cooja/mtype91.a(ctimer.o)
 .note.GNU-stack
                0x0000000000000000        0x0 build/cooja/mtype91.a(energest.o)
 .note.GNU-stack
                0x0000000000000000        0x0 build/cooja/mtype91.a(etimer.o)
 .note.GNU-stack
                0x0000000000000000        0x0 build/cooja/mtype91.a(log.o)
 .note.GNU-stack
                0x0000000000000000        0x0 build/cooja/mtype91.a(rtimer.o)
 .note.GNU-stack
                0x0000000000000000        0x0 build/cooja/mtype91.a(node-id.o)
 .note.GNU-stack
                0x0000000000000000        0x0 build/cooja/mtype91.a(process.o)
 .note.GNU-stack
                0x0000000000000000        0x0 build/cooja/mtype91.a(timer.o)
 .note.GNU-stack
                0x0000000000000000        0x0 build/cooja/mtype91.a(list.o)
 .note.GNU-stack
                0x0000000000000000        0x0 build/cooja/mtype91.a(memb.o)
 .note.GNU-stack
                0x0000000000000000        0x0 build/cooja/mtype91.a(button-hal.o)
 .note.GNU-stack
                0x0000000000000000        0x0 build/cooja/mtype91.a(serial-line.o)
 .note.GNU-stack
                0x0000000000000000        0x0 build/cooja/mtype91.a(gpio-hal.o)
 .note.GNU-stack
                0x0000000000000000        0x0 build/cooja/mtype91.a(queuebuf.o)
 .note.GNU-stack
                0x0000000000000000        0x0 build/cooja/mtype91.a(packetbuf.o)
 .note.GNU-stack
                0x0000000000000000        0x0 build/cooja/mtype91.a(netstack.o)
 .note.GNU-stack
                0x0000000000000000        0x0 build/cooja/mtype91.a(linkaddr.o)
 .note.GNU-stack
                0x0000000000000000        0x0 build/cooja/mtype91.a(csma.o)
 .note.GNU-stack
                0x0000000000000000        0x0 build/cooja/mtype91.a(csma-output.o)
 .note.GNU-stack
                0x0000000000000000        0x0 build/cooja/mtype91.a(uip-ds6.o)
 .note.GNU-stack
                0x0000000000000000        0x0 build/cooja/mtype91.a(tcpip.o)
 .note.GNU-stack
                0x0000000000000000        0x0 build/cooja/mtype91.a(uip-udp-packet.)
 .note.GNU-stack
                0x0000000000000000        0x0 build/cooja/mtype91.a(uip-ds6-route.o)
 .note.GNU-stack
                0x0000000000000000        0x0 build/cooja/mtype91.a(uip-ds6-nbr.o)
 .note.GNU-stack
                0x0000000000000000        0x0 build/cooja/mtype91.a(uip6.o)
 .note.GNU-stack
                0x0000000000000000        0x0 build/cooja/mtype91.a(uip-nd6.o)
 .note.GNU-stack
                0x0000000000000000        0x0 build/cooja/mtype91.a(sicslowpan.o)
 .note.GNU-stack
                0x0000000000000000        0x0 build/cooja/mtype91.a(uiplib.o)
 .note.GNU-stack
                0x0000000000000000        0x0 build/cooja/mtype91.a(rpl.o)
 .note.GNU-stack
                0x0000000000000000        0x0 build/cooja/mtype91.a(rpl-icmp6.o)
 .note.GNU-stack
                0x0000000000000000        0x0 build/cooja/mtype91.a(rpl-dag-root.o)
 .note.GNU-stack
                0x0000000000000000        0x0 build/cooja/mtype91.a(watchdog.o)
 .note.GNU-stack
                0x0000000000000000        0x0 build/cooja/mtype91.a(int-master.o)
 .note.GNU-stack
                0x0000000000000000        0x0 build/cooja/mtype91.a(coap-timer-defa)
 .note.GNU-stack
                0x0000000000000000        0x0 build/cooja/mtype91.a(stimer.o)
 .note.GNU-stack
                0x0000000000000000        0x0 build/cooja/mtype91.a(ringbuf.o)
 .note.GNU-stack
                0x0000000000000000        0x0 build/cooja/mtype91.a(assert.o)
 .note.GNU-stack
                0x0000000000000000        0x0 build/cooja/mtype91.a(nbr-table.o)
 .note.GNU-stack
                0x0000000000000000        0x0 build/cooja/mtype91.a(link-stats.o)
 .note.GNU-stack
                0x0000000000000000        0x0 build/cooja/mtype91.a(mac-sequence.o)
 .note.GNU-stack
                0x0000000000000000        0x0 build/cooja/mtype91.a(mac.o)
 .note.GNU-stack
                0x0000000000000000        0x0 build/cooja/mtype91.a(framer-802154.o)
 .note.GNU-stack
                0x0000000000000000        0x0 build/cooja/mtype91.a(frame802154.o)
 .note.GNU-stack
                0x0000000000000000        0x0 build/cooja/mtype91.a(csma-security.o)
 .note.GNU-stack
                0x0000000000000000        0x0 build/cooja/mtype91.a(uipbuf.o)
 .note.GNU-stack
                0x0000000000000000        0x0 build/cooja/mtype91.a(uip-icmp6.o)
 .note.GNU-stack
                0x0000000000000000        0x0 build/cooja/mtype91.a(uip-sr.o)
 .note.GNU-stack
                0x0000000000000000        0x0 build/cooja/mtype91.a(uip-packetqueue)
 .note.GNU-stack
                0x0000000000000000        0x0 build/cooja/mtype91.a(rpl-nbr-policy.)
 .note.GNU-stack
                0x0000000000000000        0x0 build/cooja/mtype91.a(rpl-neighbor.o)
 .note.GNU-stack
                0x0000000000000000        0x0 build/cooja/mtype91.a(rpl-dag.o)
 .note.GNU-stack
                0x0000000000000000        0x0 build/cooja/mtype91.a(rpl-timers.o)
 .note.GNU-stack
                0x0000000000000000        0x0 build/cooja/mtype91.a(rpl-ext-header.)
 .note.GNU-stack
                0x0000000000000000        0x0 build/cooja/mtype91.a(rpl-mrhof.o)
 .note.GNU-stack
                0x0000000000000000        0x0 /usr/lib/gcc/i686-linux-gnu/5/libgcc.a(_udivdi3.o)
 .note.GNU-stack
                0x0000000000000000        0x0 /usr/lib/gcc/i686-linux-gnu/5/crtendS.o
 .note.GNU-stack
                0x0000000000000000        0x0 /usr/lib/gcc/i686-linux-gnu/5/../../../i386-linux-gnu/crtn.o

Memory Configuration

Name             Origin             Length             Attributes
*default*        0x0000000000000000 0xffffffffffffffff

Linker script and memory map

LOAD /usr/lib/gcc/i686-linux-gnu/5/../../../i386-linux-gnu/crti.o
LOAD /usr/lib/gcc/i686-linux-gnu/5/crtbeginS.o
LOAD humidity_sensor.o
LOAD build/cooja/mtype91.o
LOAD build/cooja/mtype91.a
LOAD /usr/lib/gcc/i686-linux-gnu/5/libgcc.a
LOAD /usr/lib/gcc/i686-linux-gnu/5/libgcc_s.so
LOAD /usr/lib/gcc/i686-linux-gnu/5/../../../i386-linux-gnu/libc.so
START GROUP
LOAD /lib/i386-linux-gnu/libc.so.6
LOAD /usr/lib/i386-linux-gnu/libc_nonshared.a
LOAD /lib/i386-linux-gnu/ld-linux.so.2
END GROUP
LOAD /usr/lib/gcc/i686-linux-gnu/5/libgcc.a
LOAD /usr/lib/gcc/i686-linux-gnu/5/libgcc_s.so
LOAD /usr/lib/gcc/i686-linux-gnu/5/crtendS.o
LOAD /usr/lib/gcc/i686-linux-gnu/5/../../../i386-linux-gnu/crtn.o
                0x0000000000000114                . = (0x0 + SIZEOF_HEADERS)

.note.gnu.build-id
                0x0000000000000114       0x24
 *(.note.gnu.build-id)
 .note.gnu.build-id
                0x0000000000000114       0x24 /usr/lib/gcc/i686-linux-gnu/5/../../../i386-linux-gnu/crti.o

.hash
 *(.hash)

.gnu.hash       0x0000000000000138     0x15a4
 *(.gnu.hash)
 .gnu.hash      0x0000000000000138     0x15a4 /usr/lib/gcc/i686-linux-gnu/5/../../../i386-linux-gnu/crti.o

.dynsym         0x00000000000016dc     0x2f10
 *(.dynsym)
 .dynsym        0x00000000000016dc     0x2f10 /usr/lib/gcc/i686-linux-gnu/5/../../../i386-linux-gnu/crti.o

.dynstr         0x00000000000045ec     0x36c7
 *(.dynstr)
 .dynstr        0x00000000000045ec     0x36c7 /usr/lib/gcc/i686-linux-gnu/5/../../../i386-linux-gnu/crti.o

.gnu.version    0x0000000000007cb4      0x5e2
 *(.gnu.version)
 .gnu.version   0x0000000000007cb4      0x5e2 /usr/lib/gcc/i686-linux-gnu/5/../../../i386-linux-gnu/crti.o

.gnu.version_d  0x0000000000008298        0x0
 *(.gnu.version_d)
 .gnu.version_d
                0x0000000000008298        0x0 /usr/lib/gcc/i686-linux-gnu/5/../../../i386-linux-gnu/crti.o

.gnu.version_r  0x0000000000008298       0x40
 *(.gnu.version_r)
 .gnu.version_r
                0x0000000000008298       0x40 /usr/lib/gcc/i686-linux-gnu/5/../../../i386-linux-gnu/crti.o

.rel.dyn        0x00000000000082d8     0x93d8
 *(.rel.init)
 .rel.init      0x00000000000082d8        0x0 /usr/lib/gcc/i686-linux-gnu/5/../../../i386-linux-gnu/crti.o
 *(.rel.text .rel.text.* .rel.gnu.linkonce.t.*)
 .rel.text      0x00000000000082d8     0x89e8 /usr/lib/gcc/i686-linux-gnu/5/../../../i386-linux-gnu/crti.o
 *(.rel.fini)
 .rel.fini      0x0000000000010cc0        0x0 /usr/lib/gcc/i686-linux-gnu/5/../../../i386-linux-gnu/crti.o
 *(.rel.rodata .rel.rodata.* .rel.gnu.linkonce.r.*)
 .rel.rodata    0x0000000000010cc0      0x588 /usr/lib/gcc/i686-linux-gnu/5/../../../i386-linux-gnu/crti.o
 *(.rel.data.rel.ro .rel.data.rel.ro.* .rel.gnu.linkonce.d.rel.ro.*)
 *(.rel.data .rel.data.* .rel.gnu.linkonce.d.*)
 .rel.data.rel.local
                0x0000000000011248        0x8 /usr/lib/gcc/i686-linux-gnu/5/../../../i386-linux-gnu/crti.o
 .rel.data      0x0000000000011250      0x428 /usr/lib/gcc/i686-linux-gnu/5/../../../i386-linux-gnu/crti.o
 *(.rel.tdata .rel.tdata.* .rel.gnu.linkonce.td.*)
 *(.rel.tbss .rel.tbss.* .rel.gnu.linkonce.tb.*)
 *(.rel.ctors)
 *(.rel.dtors)
 *(.rel.got)
 .rel.got       0x0000000000011678       0x28 /usr/lib/gcc/i686-linux-gnu/5/../../../i386-linux-gnu/crti.o
 *(.rel.bss .rel.bss.* .rel.gnu.linkonce.b.*)
 *(.rel.ifunc)
 .rel.ifunc     0x00000000000116a0        0x0 /usr/lib/gcc/i686-linux-gnu/5/../../../i386-linux-gnu/crti.o
 .rel.fini_array
                0x00000000000116a0        0x8 /usr/lib/gcc/i686-linux-gnu/5/../../../i386-linux-gnu/crti.o
 .rel.init_array
                0x00000000000116a8        0x8 /usr/lib/gcc/i686-linux-gnu/5/../../../i386-linux-gnu/crti.o

.rel.plt        0x00000000000116b0        0x0
 *(.rel.plt)
 .rel.plt       0x00000000000116b0        0x0 /usr/lib/gcc/i686-linux-gnu/5/../../../i386-linux-gnu/crti.o
 *(.rel.iplt)

.init           0x00000000000116b0       0x23
 *(SORT(.init))
 .init          0x00000000000116b0       0x1e /usr/lib/gcc/i686-linux-gnu/5/../../../i386-linux-gnu/crti.o
                0x00000000000116b0                _init
 .init          0x00000000000116ce        0x5 /usr/lib/gcc/i686-linux-gnu/5/../../../i386-linux-gnu/crtn.o

.plt            0x00000000000116e0       0x10
 *(.plt)
 .plt           0x00000000000116e0       0x10 /usr/lib/gcc/i686-linux-gnu/5/../../../i386-linux-gnu/crti.o
 *(.iplt)

.plt.got        0x00000000000116f0       0x10
 *(.plt.got)
 .plt.got       0x00000000000116f0       0x10 /usr/lib/gcc/i686-linux-gnu/5/../../../i386-linux-gnu/crti.o

.text           0x0000000000011700    0x18cf2
 *(.text.unlikely .text.*_unlikely .text.unlikely.*)
 .text.unlikely
                0x0000000000011700        0x0 /usr/lib/gcc/i686-linux-gnu/5/crtbeginS.o
 .text.unlikely
                0x0000000000011700        0x0 /usr/lib/gcc/i686-linux-gnu/5/libgcc.a(_udivdi3.o)
 *(.text.exit .text.exit.*)
 *(.text.startup .text.startup.*)
 *(.text.hot .text.hot.*)
 *(.text .stub .text.* .gnu.linkonce.t.*)
 .text          0x0000000000011700        0x0 /usr/lib/gcc/i686-linux-gnu/5/../../../i386-linux-gnu/crti.o
 .gnu.linkonce.t.__x86.get_pc_thunk.bx
                0x0000000000011700        0x4 /usr/lib/gcc/i686-linux-gnu/5/../../../i386-linux-gnu/crti.o
                0x0000000000011700                __x86.get_pc_thunk.bx
 *fill*         0x0000000000011704        0xc 
 .text          0x0000000000011710      0x11c /usr/lib/gcc/i686-linux-gnu/5/crtbeginS.o
 .text.__x86.get_pc_thunk.dx
                0x000000000001182c        0x4 /usr/lib/gcc/i686-linux-gnu/5/crtbeginS.o
                0x000000000001182c                __x86.get_pc_thunk.dx
 .text          0x0000000000011830      0x3fe humidity_sensor.o
 .text          0x0000000000011c2e      0x283 build/cooja/mtype91.o
                0x0000000000011cc0                platform_init_stage_one
                0x0000000000011cd3                platform_init_stage_two
                0x0000000000011ce6                platform_init_stage_three
                0x0000000000011cf9                platform_main_loop
                0x0000000000011d6c                Java_org_contikios_cooja_corecomm_Lib22_init
                0x0000000000011da3                Java_org_contikios_cooja_corecomm_Lib22_getMemory
                0x0000000000011dd6                Java_org_contikios_cooja_corecomm_Lib22_setMemory
                0x0000000000011e36                Java_org_contikios_cooja_corecomm_Lib22_tick
                0x0000000000011e9e                Java_org_contikios_cooja_corecomm_Lib22_setReferenceAddress
 .text          0x0000000000011eb1       0x65 build/cooja/mtype91.a(simEnvChange.o)
                0x0000000000011eb1                doActionsBeforeTick
                0x0000000000011ee3                doActionsAfterTick
 .text          0x0000000000011f16       0x83 build/cooja/mtype91.a(cooja_mt.o)
                0x0000000000011f16                cooja_mt_start
                0x0000000000011f40                cooja_mt_exec
                0x0000000000011f76                cooja_mt_yield
 .text          0x0000000000011f99       0xbe build/cooja/mtype91.a(cooja_mtarch.o)
                0x0000000000011f99                cooja_mtarch_start
                0x000000000001200c                cooja_sw
                0x000000000001202f                cooja_mtarch_exec
                0x000000000001204c                cooja_mtarch_yield
 .text          0x0000000000012057       0xc5 build/cooja/mtype91.a(rtimer-arch.o)
                0x0000000000012057                rtimer_arch_init
                0x000000000001207b                rtimer_arch_schedule
                0x00000000000120ab                rtimer_arch_next
                0x00000000000120bb                rtimer_arch_pending
                0x00000000000120c5                rtimer_arch_check
                0x000000000001210c                rtimer_arch_now
 .text          0x000000000001211c       0x81 build/cooja/mtype91.a(beep.o)
                0x000000000001211c                beep_alarm
                0x0000000000012129                beep_beep
                0x0000000000012136                beep
                0x0000000000012143                beep_down
                0x0000000000012150                beep_on
                0x000000000001215d                beep_off
                0x000000000001216a                beep_spinup
                0x0000000000012177                beep_quick
                0x0000000000012184                beep_long
 .text          0x000000000001219d       0x65 build/cooja/mtype91.a(leds-arch.o)
                0x00000000000121b0                leds_arch_init
 .text          0x0000000000012202       0x35 build/cooja/mtype91.a(moteid.o)
 .text          0x0000000000012237       0xb7 build/cooja/mtype91.a(pir-sensor.o)
 .text          0x00000000000122ee      0x148 build/cooja/mtype91.a(rs232.o)
                0x00000000000122ee                rs232_init
                0x00000000000122f4                rs232_set_speed
                0x0000000000012303                rs232_set_input
                0x0000000000012311                rs232_send
                0x0000000000012335                rs232_print
                0x0000000000012351                slip_arch_writeb
 .text          0x0000000000012436       0xb7 build/cooja/mtype91.a(vib-sensor.o)
 .text          0x00000000000124ed       0x38 build/cooja/mtype91.a(clock.o)
                0x00000000000124ed                clock_init
                0x00000000000124f3                clock_time
                0x00000000000124fd                clock_seconds
                0x0000000000012513                clock_delay
 .text          0x0000000000012525      0x219 build/cooja/mtype91.a(cooja-log.o)
                0x0000000000012525                simlog_char
                0x0000000000012568                simlog
                0x00000000000125de                log_message
                0x000000000001260f                log_set_putchar_with_slip
                0x000000000001261d                log_putchar
                0x0000000000012698                log_puts
                0x00000000000126c0                log_printf
 .text          0x000000000001273e      0x2b9 build/cooja/mtype91.a(cfs-cooja.o)
                0x000000000001273e                cfs_open
                0x00000000000127a7                cfs_close
                0x00000000000127b4                cfs_read
                0x0000000000012849                cfs_write
                0x0000000000012925                cfs_seek
                0x00000000000129ad                cfs_remove
                0x00000000000129d1                cfs_opendir
                0x00000000000129db                cfs_readdir
                0x00000000000129e5                cfs_closedir
 .text          0x00000000000129f7      0x620 build/cooja/mtype91.a(cooja-radio.o)
                0x0000000000012a39                radio_set_channel
                0x0000000000012a47                radio_set_txpower
                0x0000000000012a5f                radio_signal_strength_last
                0x0000000000012a69                radio_signal_strength_current
                0x0000000000012a73                radio_LQI
 .text          0x0000000000013017       0xee build/cooja/mtype91.a(eeprom.o)
                0x0000000000013017                eeprom_init
                0x000000000001301d                eeprom_read
                0x000000000001308b                eeprom_write
 .text          0x0000000000013105       0x2d build/cooja/mtype91.a(random.o)
                0x0000000000013105                random_init
                0x0000000000013125                random_rand
 .text          0x0000000000013132      0x29c build/cooja/mtype91.a(sensors.o)
                0x000000000001316d                sensors_first
                0x0000000000013177                sensors_next
                0x0000000000013191                sensors_changed
                0x00000000000131c5                sensors_find
 .text          0x00000000000133ce      0x349 build/cooja/mtype91.a(leds.o)
                0x00000000000133ce                leds_init
                0x0000000000013415                leds_single_on
                0x0000000000013474                leds_single_off
                0x00000000000134d3                leds_single_toggle
                0x0000000000013505                leds_on
                0x0000000000013587                leds_off
                0x0000000000013609                leds_toggle
                0x000000000001365e                leds_set
                0x000000000001368a                leds_get
 .text          0x0000000000013717      0x343 build/cooja/mtype91.a(gpio-hal-arch.o)
                0x0000000000013717                gpio_hal_arch_register_pin_callback
                0x0000000000013783                gpio_hal_arch_init
                0x00000000000137c8                gpio_hal_arch_no_port_interrupt_enable
                0x00000000000137f8                gpio_hal_arch_no_port_interrupt_disable
                0x0000000000013828                gpio_hal_arch_no_port_pin_cfg_set
                0x000000000001384d                gpio_hal_arch_no_port_pin_cfg_get
                0x0000000000013873                gpio_hal_arch_no_port_pin_set_input
                0x0000000000013885                gpio_hal_arch_no_port_pin_set_output
                0x0000000000013897                gpio_hal_arch_no_port_set_pin
                0x00000000000138b8                gpio_hal_arch_no_port_clear_pin
                0x00000000000138d9                gpio_hal_arch_no_port_read_pin
                0x00000000000138ff                gpio_hal_arch_no_port_write_pin
                0x0000000000013929                gpio_hal_arch_no_port_set_pins
                0x0000000000013970                gpio_hal_arch_no_port_clear_pins
                0x00000000000139b7                gpio_hal_arch_no_port_read_pins
                0x00000000000139fa                gpio_hal_arch_no_port_write_pins
 .text          0x0000000000013a5a       0x89 build/cooja/mtype91.a(buttons.o)
 .text          0x0000000000013ae3      0x157 build/cooja/mtype91.a(res_humidity.o)
 .text          0x0000000000013c3a      0x27b build/cooja/mtype91.a(coap-blocking-a)
                0x0000000000013c3a                coap_blocking_request_callback
                0x0000000000013c64                coap_blocking_request
 .text          0x0000000000013eb5      0xbea build/cooja/mtype91.a(coap-engine.o)
                0x0000000000013f4a                coap_add_handler
                0x0000000000013f67                coap_remove_handler
                0x0000000000013f84                coap_call_handlers
                0x000000000001408c                coap_receive
                0x0000000000014687                coap_engine_init
                0x00000000000146e5                coap_activate_resource
                0x0000000000014790                coap_get_first_resource
                0x00000000000147a9                coap_get_next_resource
 .text          0x0000000000014a9f      0x2d9 build/cooja/mtype91.a(coap-res-well-k)
 .text          0x0000000000014d78      0x96a build/cooja/mtype91.a(coap-observe.o)
                0x0000000000014e8d                coap_remove_observer
                0x0000000000014ebd                coap_remove_observer_by_client
                0x0000000000014f25                coap_remove_observer_by_token
                0x0000000000014fb8                coap_remove_observer_by_uri
                0x000000000001505f                coap_remove_observer_by_mid
                0x00000000000150db                coap_notify_observers
                0x00000000000150f4                coap_notify_observers_sub
                0x000000000001555e                coap_observe_handler
                0x0000000000015679                coap_has_observers
 .text          0x00000000000156e2      0x2c6 build/cooja/mtype91.a(coap-transactio)
                0x0000000000015748                coap_new_transaction
                0x00000000000157ae                coap_send_transaction
                0x000000000001590f                coap_clear_transaction
                0x0000000000015957                coap_get_transaction_by_mid
 .text          0x00000000000159a8      0x733 build/cooja/mtype91.a(coap-uip.o)
                0x00000000000159a8                coap_endpoint_log
                0x0000000000015a2e                coap_endpoint_print
                0x0000000000015ab4                coap_endpoint_snprint
                0x0000000000015be7                coap_endpoint_copy
                0x0000000000015c24                coap_endpoint_cmp
                0x0000000000015d32                coap_endpoint_parse
                0x0000000000015f1d                coap_endpoint_is_secure
                0x0000000000015f2c                coap_endpoint_is_connected
                0x0000000000015f60                coap_endpoint_connect
                0x0000000000015f7c                coap_endpoint_disconnect
                0x0000000000015f82                coap_databuf
                0x0000000000015f8c                coap_transport_init
                0x0000000000015fdc                coap_sendto
 .text          0x00000000000160db      0x324 build/cooja/mtype91.a(coap-timer.o)
                0x00000000000161d8                coap_timer_stop
                0x0000000000016203                coap_timer_set
                0x0000000000016246                coap_timer_reset
                0x0000000000016289                coap_timer_time_to_next_expiration
                0x00000000000162f5                coap_timer_run
                0x00000000000163c1                coap_timer_init
 .text          0x00000000000163ff     0x1c53 build/cooja/mtype91.a(coap.o)
                0x000000000001696c                coap_init_connection
                0x0000000000016980                coap_get_mid
                0x000000000001699c                coap_init_message
                0x00000000000169e5                coap_serialize_message
                0x0000000000017067                coap_parse_message
                0x00000000000176ce                coap_get_query_variable
                0x0000000000017710                coap_get_post_variable
                0x0000000000017754                coap_set_status_code
                0x0000000000017779                coap_set_token
                0x00000000000177c0                coap_get_header_content_format
                0x00000000000177f1                coap_set_header_content_format
                0x0000000000017814                coap_get_header_accept
                0x0000000000017845                coap_set_header_accept
                0x0000000000017868                coap_get_header_max_age
                0x0000000000017899                coap_set_header_max_age
                0x00000000000178b9                coap_get_header_etag
                0x00000000000178eb                coap_set_header_etag
                0x0000000000017942                coap_get_header_if_match
                0x0000000000017974                coap_set_header_if_match
                0x00000000000179cb                coap_get_header_if_none_match
                0x00000000000179e5                coap_set_header_if_none_match
                0x00000000000179fc                coap_get_header_proxy_uri
                0x0000000000017a2a                coap_set_header_proxy_uri
                0x0000000000017a67                coap_get_header_uri_host
                0x0000000000017a95                coap_set_header_uri_host
                0x0000000000017ad2                coap_get_header_uri_path
                0x0000000000017b00                coap_set_header_uri_path
                0x0000000000017b4d                coap_get_header_uri_query
                0x0000000000017b81                coap_set_header_uri_query
                0x0000000000017bd7                coap_get_header_location_path
                0x0000000000017c05                coap_set_header_location_path
                0x0000000000017c9e                coap_get_header_location_query
                0x0000000000017ccc                coap_set_header_location_query
                0x0000000000017d19                coap_get_header_observe
                0x0000000000017d48                coap_set_header_observe
                0x0000000000017d68                coap_get_header_block2
                0x0000000000017dd4                coap_set_header_block2
                0x0000000000017e4b                coap_get_header_block1
                0x0000000000017ec0                coap_set_header_block1
                0x0000000000017f3b                coap_get_header_size2
                0x0000000000017f6b                coap_set_header_size2
                0x0000000000017f8e                coap_get_header_size1
                0x0000000000017fbe                coap_set_header_size1
                0x0000000000017fe1                coap_get_payload
                0x000000000001801b                coap_set_payload
 .text          0x0000000000018052      0x332 build/cooja/mtype91.a(contiki-main.o)
                0x0000000000018052                main
 .text          0x0000000000018384       0x92 build/cooja/mtype91.a(autostart.o)
                0x0000000000018384                autostart_start
                0x00000000000183ce                autostart_exit
 .text          0x0000000000018416      0x355 build/cooja/mtype91.a(ctimer.o)
                0x000000000001853e                ctimer_init
                0x0000000000018571                ctimer_set
                0x0000000000018597                ctimer_set_with_process
                0x0000000000018614                ctimer_reset
                0x0000000000018668                ctimer_restart
                0x00000000000186bc                ctimer_stop
                0x000000000001870c                ctimer_expired
 .text          0x000000000001876b       0x1b build/cooja/mtype91.a(energest.o)
                0x000000000001876b                energest_init
                0x0000000000018771                energest_flush
                0x0000000000018777                energest_get_total_time
 .text          0x0000000000018786      0x43f build/cooja/mtype91.a(etimer.o)
                0x00000000000189aa                etimer_request_poll
                0x0000000000018a33                etimer_set
                0x0000000000018a5c                etimer_reset_with_new_interval
                0x0000000000018a8b                etimer_reset
                0x0000000000018ab1                etimer_restart
                0x0000000000018ad7                etimer_adjust
                0x0000000000018af4                etimer_expired
                0x0000000000018b07                etimer_expiration_time
                0x0000000000018b19                etimer_start_time
                0x0000000000018b23                etimer_pending
                0x0000000000018b35                etimer_next_expiration_time
                0x0000000000018b4f                etimer_stop
 .text          0x0000000000018bc5      0x394 build/cooja/mtype91.a(log.o)
                0x0000000000018bc5                log_6addr
                0x0000000000018c18                log_6addr_compact_snprint
                0x0000000000018cb6                log_6addr_compact
                0x0000000000018d09                log_lladdr
                0x0000000000018d7b                log_lladdr_compact
                0x0000000000018de3                log_set_level
                0x0000000000018e9e                log_get_level
                0x0000000000018f17                log_level_to_str
 .text          0x0000000000018f59       0xeb build/cooja/mtype91.a(rtimer.o)
                0x0000000000018f59                rtimer_init
                0x0000000000018f67                rtimer_set
                0x0000000000018fe2                rtimer_run_next
 .text          0x0000000000019044       0x25 build/cooja/mtype91.a(node-id.o)
                0x0000000000019044                node_id_init
 .text          0x0000000000019069      0x4fb build/cooja/mtype91.a(process.o)
                0x0000000000019069                process_alloc_event
                0x000000000001907e                process_start
                0x0000000000019258                process_exit
                0x0000000000019275                process_init
                0x000000000001940a                process_run
                0x000000000001943d                process_nevents
                0x0000000000019458                process_post
                0x00000000000194eb                process_post_synch
                0x0000000000019520                process_poll
                0x0000000000019550                process_is_running
 .text          0x0000000000019564       0xb1 build/cooja/mtype91.a(timer.o)
                0x0000000000019564                timer_set
                0x0000000000019582                timer_reset
                0x00000000000195af                timer_restart
                0x00000000000195c4                timer_expired
                0x00000000000195f1                timer_remaining
 .text          0x0000000000019615      0x28f build/cooja/mtype91.a(list.o)
                0x0000000000019615                list_init
                0x0000000000019624                list_head
                0x000000000001962e                list_copy
                0x000000000001963e                list_tail
                0x0000000000019674                list_add
                0x00000000000196c0                list_push
                0x00000000000196ec                list_chop
                0x0000000000019756                list_pop
                0x000000000001977e                list_remove
                0x00000000000197e6                list_length
                0x0000000000019814                list_insert
                0x0000000000019859                list_item_next
                0x0000000000019870                list_contains
 .text          0x00000000000198a4      0x1b5 build/cooja/mtype91.a(memb.o)
                0x00000000000198a4                memb_init
                0x00000000000198f9                memb_alloc
                0x000000000001995c                memb_free
                0x00000000000199d3                memb_inmemb
                0x0000000000019a12                memb_numfree
 .text          0x0000000000019a59      0x41c build/cooja/mtype91.a(button-hal.o)
                0x0000000000019bd2                button_hal_get_by_id
                0x0000000000019c10                button_hal_get_by_index
                0x0000000000019c3c                button_hal_get_state
                0x0000000000019c8e                button_hal_init
 .text          0x0000000000019e75      0x1f3 build/cooja/mtype91.a(serial-line.o)
                0x0000000000019e75                serial_line_input_byte
                0x000000000001a033                serial_line_init
 .text          0x000000000001a068      0x168 build/cooja/mtype91.a(gpio-hal.o)
                0x000000000001a068                gpio_hal_register_handler
                0x000000000001a085                gpio_hal_event_handler
                0x000000000001a0e1                gpio_hal_init
                0x000000000001a100                gpio_hal_arch_port_toggle_pin
                0x000000000001a13c                gpio_hal_arch_port_toggle_pins
                0x000000000001a16a                gpio_hal_arch_no_port_toggle_pin
                0x000000000001a1a8                gpio_hal_arch_no_port_toggle_pins
 .text          0x000000000001a1d0      0x2e7 build/cooja/mtype91.a(queuebuf.o)
                0x000000000001a1da                queuebuf_init
                0x000000000001a203                queuebuf_numfree
                0x000000000001a21b                queuebuf_new_from_packetbuf
                0x000000000001a2ba                queuebuf_update_attr_from_packetbuf
                0x000000000001a2ef                queuebuf_update_from_packetbuf
                0x000000000001a33f                queuebuf_free
                0x000000000001a388                queuebuf_to_packetbuf
                0x000000000001a3f4                queuebuf_dataptr
                0x000000000001a42e                queuebuf_datalen
                0x000000000001a451                queuebuf_addr
                0x000000000001a486                queuebuf_attr
                0x000000000001a4b1                queuebuf_debug_print
 .text          0x000000000001a4b7      0x407 build/cooja/mtype91.a(packetbuf.o)
                0x000000000001a4b7                packetbuf_clear
                0x000000000001a4e2                packetbuf_copyfrom
                0x000000000001a531                packetbuf_copyto
                0x000000000001a5c4                packetbuf_hdralloc
                0x000000000001a640                packetbuf_hdrreduce
                0x000000000001a686                packetbuf_set_datalen
                0x000000000001a6a0                packetbuf_dataptr
                0x000000000001a6bd                packetbuf_hdrptr
                0x000000000001a6c7                packetbuf_datalen
                0x000000000001a6d3                packetbuf_hdrlen
                0x000000000001a6ea                packetbuf_totlen
                0x000000000001a700                packetbuf_remaininglen
                0x000000000001a713                packetbuf_attr_clear
                0x000000000001a75f                packetbuf_attr_copyto
                0x000000000001a7b7                packetbuf_attr_copyfrom
                0x000000000001a80f                packetbuf_set_attr
                0x000000000001a839                packetbuf_attr
                0x000000000001a853                packetbuf_set_addr
                0x000000000001a884                packetbuf_addr
                0x000000000001a8a1                packetbuf_holds_broadcast
 .text          0x000000000001a8be       0xef build/cooja/mtype91.a(netstack.o)
                0x000000000001a8be                netstack_process_ip_callback
                0x000000000001a94f                netstack_ip_packet_processor_add
                0x000000000001a972                uip_ds6_ip_packet_processor_rm
                0x000000000001a98f                netstack_init
 .text          0x000000000001a9ad       0x4f build/cooja/mtype91.a(linkaddr.o)
                0x000000000001a9ad                linkaddr_copy
                0x000000000001a9c3                linkaddr_cmp
                0x000000000001a9e6                linkaddr_set_node_addr
 .text          0x000000000001a9fc      0x1f6 build/cooja/mtype91.a(csma.o)
 .text          0x000000000001abf2      0x95d build/cooja/mtype91.a(csma-output.o)
                0x000000000001b289                csma_output_packet
                0x000000000001b516                csma_output_init
 .text          0x000000000001b54f      0xc11 build/cooja/mtype91.a(uip-ds6.o)
                0x000000000001b54f                uip_ds6_default_prefix
                0x000000000001b559                uip_ds6_set_default_prefix
                0x000000000001b584                uip_ds6_init
                0x000000000001b7e6                uip_ds6_periodic
                0x000000000001b86d                uip_ds6_list_loop
                0x000000000001b92d                uip_ds6_prefix_add
                0x000000000001b9d9                uip_ds6_prefix_rm
                0x000000000001b9ec                uip_ds6_prefix_lookup
                0x000000000001ba2b                uip_ds6_is_addr_onlink
                0x000000000001ba9e                uip_ds6_addr_add
                0x000000000001bbbe                uip_ds6_addr_rm
                0x000000000001bc67                uip_ds6_addr_lookup
                0x000000000001bca0                uip_ds6_get_link_local
                0x000000000001bd21                uip_ds6_get_global
                0x000000000001bda2                uip_ds6_maddr_add
                0x000000000001be02                uip_ds6_maddr_rm
                0x000000000001be15                uip_ds6_maddr_lookup
                0x000000000001be4e                uip_ds6_aaddr_add
                0x000000000001beae                uip_ds6_aaddr_rm
                0x000000000001bec1                uip_ds6_aaddr_lookup
                0x000000000001befa                uip_ds6_select_src
                0x000000000001c043                uip_ds6_set_addr_iid
                0x000000000001c06e                uip_ds6_set_lladdr_from_iid
                0x000000000001c097                get_match_length
                0x000000000001c128                uip_ds6_compute_reachable_time
 .text          0x000000000001c160      0x6f7 build/cooja/mtype91.a(tcpip.o)
                0x000000000001c17a                tcpip_output
                0x000000000001c1f9                udp_attach
                0x000000000001c211                udp_new
                0x000000000001c25b                udp_broadcast_new
                0x000000000001c3cd                tcpip_input
                0x000000000001c55d                tcpip_ipv6_output
                0x000000000001c751                tcpip_poll_udp
                0x000000000001c76f                tcpip_uipcall
 .text          0x000000000001c857      0x128 build/cooja/mtype91.a(uip-udp-packet.)
                0x000000000001c857                uip_udp_packet_send
                0x000000000001c8b2                uip_udp_packet_sendto
 .text          0x000000000001c97f      0xa3c build/cooja/mtype91.a(uip-ds6-route.o)
                0x000000000001ca69                uip_ds6_notification_add
                0x000000000001ca9b                uip_ds6_notification_rm
                0x000000000001cab8                uip_ds6_route_init
                0x000000000001cb57                uip_ds6_route_nexthop
                0x000000000001cb86                uip_ds6_route_head
                0x000000000001cb9f                uip_ds6_route_next
                0x000000000001cbc8                uip_ds6_route_is_nexthop
                0x000000000001cc0a                uip_ds6_route_num_routes
                0x000000000001cc14                uip_ds6_route_lookup
                0x000000000001cceb                uip_ds6_route_add
                0x000000000001cf2b                uip_ds6_route_rm
                0x000000000001d0c9                uip_ds6_route_rm_by_nexthop
                0x000000000001d108                uip_ds6_defrt_head
                0x000000000001d121                uip_ds6_defrt_add
                0x000000000001d1e2                uip_ds6_defrt_rm
                0x000000000001d263                uip_ds6_defrt_lookup
                0x000000000001d2ca                uip_ds6_defrt_choose
                0x000000000001d340                uip_ds6_defrt_periodic
 .text          0x000000000001d3bb      0x369 build/cooja/mtype91.a(uip-ds6-nbr.o)
                0x000000000001d3bb                uip_ds6_neighbors_init
                0x000000000001d3df                uip_ds6_nbr_add
                0x000000000001d465                uip_ds6_nbr_rm
                0x000000000001d4b0                uip_ds6_nbr_update_ll
                0x000000000001d59e                uip_ds6_nbr_get_ipaddr
                0x000000000001d5b3                uip_ds6_nbr_get_ll
                0x000000000001d5cf                uip_ds6_nbr_num
                0x000000000001d618                uip_ds6_nbr_head
                0x000000000001d631                uip_ds6_nbr_next
                0x000000000001d64d                uip_ds6_nbr_lookup
                0x000000000001d6a5                uip_ds6_nbr_ll_lookup
                0x000000000001d6c1                uip_ds6_nbr_ipaddr_from_lladdr
                0x000000000001d6ea                uip_ds6_nbr_lladdr_from_ipaddr
                0x000000000001d71e                uip_ds6_link_callback
 .text          0x000000000001d724     0x1205 build/cooja/mtype91.a(uip6.o)
                0x000000000001d7d3                uip_chksum
                0x000000000001d8aa                uip_icmp6chksum
                0x000000000001d8bf                uip_udpchksum
                0x000000000001d8d4                uip_init
                0x000000000001d91d                uip_remove_ext_hdr
                0x000000000001d9f7                uip_udp_new
                0x000000000001dd0b                uip_process
                0x000000000001e803                uip_htons
                0x000000000001e825                uip_htonl
                0x000000000001e863                uip_send
 .text          0x000000000001e929      0x6a7 build/cooja/mtype91.a(uip-nd6.o)
                0x000000000001efb7                uip_nd6_init
 .text          0x000000000001efd0     0x2c17 build/cooja/mtype91.a(sicslowpan.o)
                0x000000000001f5d7                netstack_sniffer_add
                0x000000000001f5e5                netstack_sniffer_remove
                0x0000000000021bbb                sicslowpan_init
                0x0000000000021bdd                sicslowpan_get_last_rssi
 .text          0x0000000000021be7      0x4d1 build/cooja/mtype91.a(uiplib.o)
                0x0000000000021be7                uiplib_ip6addrconv
                0x0000000000021d9f                uiplib_ip4addrconv
                0x0000000000021e62                uiplib_ipaddr_print
                0x0000000000021eb5                uiplib_ipaddr_snprint
 .text          0x00000000000220b8      0x4c9 build/cooja/mtype91.a(rpl.o)
                0x00000000000220b8                rpl_lollipop_greater_than
                0x0000000000022112                rpl_get_global_address
                0x000000000002220a                rpl_link_callback
                0x000000000002224e                rpl_has_joined
                0x0000000000022273                rpl_is_reachable
                0x00000000000222f4                rpl_reset_prefix
                0x000000000002235e                rpl_set_prefix_from_addr
                0x0000000000022443                rpl_set_prefix
                0x000000000002255d                rpl_set_leaf_only
                0x0000000000022575                rpl_get_leaf_only
 .text          0x0000000000022581     0x138c build/cooja/mtype91.a(rpl-icmp6.o)
                0x00000000000226a6                rpl_icmp6_update_nbr_table
                0x000000000002272f                rpl_icmp6_dis_output
                0x0000000000022d75                rpl_icmp6_dio_output
                0x0000000000023573                rpl_icmp6_dao_output
                0x0000000000023854                rpl_icmp6_dao_ack_output
                0x00000000000238c4                rpl_icmp6_init
 .text          0x000000000002390d      0x264 build/cooja/mtype91.a(rpl-dag-root.o)
                0x000000000002390d                rpl_dag_root_print_links
                0x0000000000023a39                rpl_dag_root_set_prefix
                0x0000000000023a65                rpl_dag_root_start
                0x0000000000023b42                rpl_dag_root_is_root
 .text          0x0000000000023b71       0x30 build/cooja/mtype91.a(watchdog.o)
                0x0000000000023b71                watchdog_init
                0x0000000000023b77                watchdog_start
                0x0000000000023b7d                watchdog_periodic
                0x0000000000023b95                watchdog_stop
                0x0000000000023b9b                watchdog_reboot
 .text          0x0000000000023ba1       0x4a build/cooja/mtype91.a(int-master.o)
                0x0000000000023ba1                int_master_enable
                0x0000000000023bb1                int_master_read_and_disable
                0x0000000000023bce                int_master_status_set
                0x0000000000023bdc                int_master_is_enabled
 .text          0x0000000000023beb      0x226 build/cooja/mtype91.a(coap-timer-defa)
 .text          0x0000000000023e11       0xc7 build/cooja/mtype91.a(stimer.o)
                0x0000000000023e11                stimer_set
                0x0000000000023e2f                stimer_reset
                0x0000000000023e5c                stimer_restart
                0x0000000000023e71                stimer_expired
                0x0000000000023e9c                stimer_remaining
                0x0000000000023ec0                stimer_elapsed
 .text          0x0000000000023ed8      0x156 build/cooja/mtype91.a(ringbuf.o)
                0x0000000000023ed8                ringbuf_init
                0x0000000000023f0a                ringbuf_put
                0x0000000000023f88                ringbuf_get
                0x0000000000023ff5                ringbuf_size
                0x0000000000024007                ringbuf_elements
 .text          0x000000000002402e       0x1f build/cooja/mtype91.a(assert.o)
                0x000000000002402e                _xassert
 .text          0x000000000002404d      0x79b build/cooja/mtype91.a(nbr-table.o)
                0x00000000000244c6                nbr_table_register
                0x0000000000024533                nbr_table_is_registered
                0x000000000002456e                nbr_table_head
                0x00000000000245c9                nbr_table_next
                0x000000000002462a                nbr_table_add_lladdr
                0x0000000000024704                nbr_table_get_from_lladdr
                0x0000000000024750                nbr_table_remove
                0x0000000000024788                nbr_table_lock
                0x00000000000247a2                nbr_table_unlock
                0x00000000000247bc                nbr_table_get_lladdr
 .text          0x00000000000247e8      0x3a5 build/cooja/mtype91.a(link-stats.o)
                0x00000000000247e8                link_stats_from_lladdr
                0x0000000000024804                link_stats_get_lladdr
                0x0000000000024820                link_stats_is_fresh
                0x000000000002485c                guess_etx_from_rssi
                0x00000000000248d8                link_stats_packet_sent
                0x00000000000249f8                link_stats_input_callback
                0x0000000000024b08                link_stats_reset
                0x0000000000024b58                link_stats_init
 .text          0x0000000000024b8d      0x187 build/cooja/mtype91.a(mac-sequence.o)
                0x0000000000024b8d                mac_sequence_is_duplicate
                0x0000000000024c2d                mac_sequence_register_seqno
 .text          0x0000000000024d14       0x23 build/cooja/mtype91.a(mac.o)
                0x0000000000024d14                mac_call_sent_callback
 .text          0x0000000000024d37      0x432 build/cooja/mtype91.a(framer-802154.o)
                0x0000000000024ec6                framer_802154_setup_params
 .text          0x0000000000025169      0xb6f build/cooja/mtype91.a(frame802154.o)
                0x000000000002519a                frame802154_get_pan_id
                0x00000000000251a6                frame802154_set_pan_id
                0x00000000000251c0                frame802154_has_panid
                0x000000000002536f                frame802154_check_dest_panid
                0x00000000000253f7                frame802154_is_broadcast_addr
                0x0000000000025444                frame802154_extract_linkaddr
                0x00000000000256a9                frame802154_hdrlen
                0x000000000002571c                frame802154_create_fcf
                0x00000000000257d4                frame802154_create
                0x0000000000025949                frame802154_parse_fcf
                0x0000000000025a2b                frame802154_parse
 .text          0x0000000000025cd8       0x2d build/cooja/mtype91.a(csma-security.o)
                0x0000000000025cd8                csma_security_create_frame
                0x0000000000025cf6                csma_security_parse_frame
 .text          0x0000000000025d05      0x4e4 build/cooja/mtype91.a(uipbuf.o)
                0x0000000000025d05                uipbuf_clear
                0x0000000000025d2c                uipbuf_add_ext_hdr
                0x0000000000025dac                uipbuf_set_len
                0x0000000000025dd9                uipbuf_set_len_field
                0x0000000000025e05                uipbuf_get_len_field
                0x0000000000025e25                uipbuf_get_next_header
                0x0000000000025f57                uipbuf_get_last_header
                0x0000000000025fd0                uipbuf_search_header
                0x0000000000026086                uipbuf_get_attr
                0x00000000000260ad                uipbuf_set_attr
                0x00000000000260e4                uipbuf_set_default_attr
                0x000000000002611b                uipbuf_clear_attr
                0x000000000002613f                uipbuf_set_attr_flag
                0x0000000000026160                uipbuf_clr_attr_flag
                0x0000000000026187                uipbuf_is_attr_flag
                0x00000000000261ab                uipbuf_init
 .text          0x00000000000261e9      0x73f build/cooja/mtype91.a(uip-icmp6.o)
                0x000000000002625e                uip_icmp6_input
                0x00000000000262b5                uip_icmp6_register_input_handler
                0x0000000000026408                uip_icmp6_error_output
                0x00000000000266b9                uip_icmp6_send
                0x00000000000268b0                uip_icmp6_echo_reply_callback_add
                0x00000000000268e2                uip_icmp6_echo_reply_callback_rm
                0x00000000000268ff                uip_icmp6_init
 .text          0x0000000000026928      0x69b build/cooja/mtype91.a(uip-sr.o)
                0x0000000000026928                uip_sr_num_nodes
                0x00000000000269b6                uip_sr_get_node
                0x0000000000026a0d                uip_sr_is_addr_reachable
                0x0000000000026abb                uip_sr_expire_parent
                0x0000000000026b04                uip_sr_update_node
                0x0000000000026c34                uip_sr_init
                0x0000000000026c68                uip_sr_node_head
                0x0000000000026c81                uip_sr_node_next
                0x0000000000026c97                uip_sr_periodic
                0x0000000000026d9d                uip_sr_free_all
                0x0000000000026e0d                uip_sr_link_snprint
 .text          0x0000000000026fc3      0x146 build/cooja/mtype91.a(uip-packetqueue)
                0x0000000000026ff1                uip_packetqueue_new
                0x0000000000027000                uip_packetqueue_alloc
                0x000000000002705b                uip_packetqueue_free
                0x00000000000270a2                uip_packetqueue_buf
                0x00000000000270bf                uip_packetqueue_buflen
                0x00000000000270e0                uip_packetqueue_set_buflen
 .text          0x0000000000027109      0x1b0 build/cooja/mtype91.a(rpl-nbr-policy.)
                0x0000000000027276                rpl_nbr_policy_find_removable
 .text          0x00000000000272b9      0x915 build/cooja/mtype91.a(rpl-neighbor.o)
                0x0000000000027335                rpl_neighbor_snprint
                0x00000000000275e8                rpl_neighbor_print_list
                0x000000000002769d                rpl_neighbor_count
                0x0000000000027744                rpl_neighbor_get_from_lladdr
                0x0000000000027760                rpl_neighbor_is_acceptable_parent
                0x0000000000027794                rpl_neighbor_get_link_metric
                0x00000000000277c8                rpl_neighbor_rank_via_nbr
                0x00000000000277fc                rpl_neighbor_get_lladdr
                0x0000000000027818                rpl_neighbor_get_ipaddr
                0x000000000002783f                rpl_neighbor_get_link_stats
                0x0000000000027866                rpl_neighbor_is_fresh
                0x000000000002788d                rpl_neighbor_is_reachable
                0x00000000000278d8                rpl_neighbor_is_parent
                0x0000000000027902                rpl_neighbor_set_preferred_parent
                0x0000000000027999                rpl_neighbor_remove_all
                0x00000000000279f5                rpl_neighbor_get_from_ipaddr
                0x0000000000027b03                rpl_neighbor_select_best
                0x0000000000027baf                rpl_neighbor_init
 .text          0x0000000000027bce      0xe69 build/cooja/mtype91.a(rpl-dag.o)
                0x0000000000027bce                rpl_dag_state_to_str
                0x0000000000027c0d                rpl_dag_get_root_ipaddr
                0x0000000000027c55                rpl_dag_leave
                0x0000000000027cde                rpl_dag_poison_and_leave
                0x0000000000027cf6                rpl_dag_periodic
                0x0000000000027d7e                rpl_is_addr_in_our_dag
                0x0000000000027dc2                rpl_get_default_instance
                0x0000000000027dde                rpl_get_any_dag
                0x0000000000027e37                rpl_refresh_routes
                0x0000000000027e77                rpl_global_repair
                0x0000000000027f10                rpl_local_repair
                0x0000000000027f5a                rpl_dag_ready_to_advertise
                0x0000000000027f9d                rpl_dag_update_state
                0x00000000000286ca                rpl_process_dio
                0x0000000000028748                rpl_process_dis
                0x000000000002878d                rpl_process_dao
                0x000000000002881c                rpl_process_dao_ack
                0x00000000000288b3                rpl_process_hbh
                0x0000000000028903                rpl_dag_init_root
                0x0000000000028a17                rpl_dag_init
 .text          0x0000000000028a37      0x9e7 build/cooja/mtype91.a(rpl-timers.o)
                0x0000000000028a37                rpl_timers_schedule_periodic_dis
                0x0000000000028b85                rpl_timers_dio_reset
                0x0000000000028c93                rpl_timers_schedule_unicast_dio
                0x0000000000028de7                rpl_timers_schedule_dao
                0x0000000000028ea6                rpl_timers_schedule_dao_ack
                0x0000000000028f2c                rpl_timers_notify_dao_ack
                0x0000000000028f8a                get_probing_delay
                0x0000000000028fbe                get_probing_target
                0x00000000000291a8                rpl_schedule_probing
                0x00000000000291d6                rpl_schedule_probing_now
                0x0000000000029240                rpl_timers_unschedule_leaving
                0x0000000000029278                rpl_timers_schedule_leaving
                0x00000000000292b9                rpl_timers_init
                0x0000000000029349                rpl_timers_stop_dag_timers
                0x00000000000293c2                rpl_timers_unschedule_state_update
                0x00000000000293e6                rpl_timers_schedule_state_update
 .text          0x000000000002941e      0xb8e build/cooja/mtype91.a(rpl-ext-header.)
                0x000000000002941e                rpl_ext_header_srh_get_next_hop
                0x0000000000029505                rpl_ext_header_srh_update
                0x0000000000029a71                rpl_ext_header_hbh_update
                0x0000000000029d71                rpl_ext_header_update
                0x0000000000029dfa                rpl_ext_header_remove
 .text          0x0000000000029fac      0x31b build/cooja/mtype91.a(rpl-mrhof.o)
 *fill*         0x000000000002a2c7        0x9 
 .text          0x000000000002a2d0      0x122 /usr/lib/gcc/i686-linux-gnu/5/libgcc.a(_udivdi3.o)
                0x000000000002a2d0                __udivdi3
 .text          0x000000000002a3f2        0x0 /usr/lib/gcc/i686-linux-gnu/5/crtendS.o
 .text          0x000000000002a3f2        0x0 /usr/lib/gcc/i686-linux-gnu/5/../../../i386-linux-gnu/crtn.o
 *(.gnu.warning)

.fini           0x000000000002a3f4       0x14
 *(SORT(.fini))
 .fini          0x000000000002a3f4        0xf /usr/lib/gcc/i686-linux-gnu/5/../../../i386-linux-gnu/crti.o
                0x000000000002a3f4                _fini
 .fini          0x000000000002a403        0x5 /usr/lib/gcc/i686-linux-gnu/5/../../../i386-linux-gnu/crtn.o
                [!provide]                        PROVIDE (__etext, .)
                [!provide]                        PROVIDE (_etext, .)
                [!provide]                        PROVIDE (etext, .)

.rodata         0x000000000002a420      0xb4b
 *(.rodata .rodata.* .gnu.linkonce.r.*)
 .rodata        0x000000000002a420      0x108 humidity_sensor.o
                0x000000000002a420                VAR_RANGE
                0x000000000002a434                autostart_processes
 .rodata        0x000000000002a528        0x8 build/cooja/mtype91.a(beep.o)
                0x000000000002a528                beep_interface
 .rodata        0x000000000002a530        0xe build/cooja/mtype91.a(leds-arch.o)
                0x000000000002a530                leds_interface
                0x000000000002a538                leds_arch_leds
 *fill*         0x000000000002a53e        0x2 
 .rodata        0x000000000002a540        0x8 build/cooja/mtype91.a(moteid.o)
                0x000000000002a540                moteid_interface
 .rodata        0x000000000002a548       0x1c build/cooja/mtype91.a(pir-sensor.o)
                0x000000000002a548                pir_interface
                0x000000000002a554                pir_sensor
 .rodata        0x000000000002a564        0xe build/cooja/mtype91.a(rs232.o)
                0x000000000002a564                rs232_interface
 *fill*         0x000000000002a572        0x2 
 .rodata        0x000000000002a574       0x24 build/cooja/mtype91.a(vib-sensor.o)
                0x000000000002a574                vib_interface
                0x000000000002a588                vib_sensor
 .rodata        0x000000000002a598        0x8 build/cooja/mtype91.a(clock.o)
                0x000000000002a598                clock_interface
 .rodata        0x000000000002a5a0        0x8 build/cooja/mtype91.a(cooja-log.o)
                0x000000000002a5a0                simlog_interface
 .rodata        0x000000000002a5a8       0x2f build/cooja/mtype91.a(cfs-cooja.o)
                0x000000000002a5a8                cfs_interface
 *fill*         0x000000000002a5d7        0x9 
 .rodata        0x000000000002a5e0       0xb8 build/cooja/mtype91.a(cooja-radio.o)
                0x000000000002a5e0                radio_interface
                0x000000000002a660                cooja_radio_driver
 .rodata        0x000000000002a698        0x8 build/cooja/mtype91.a(eeprom.o)
                0x000000000002a698                eeprom_interface
 .rodata        0x000000000002a6a0        0x8 build/cooja/mtype91.a(sensors.o)
 .rodata        0x000000000002a6a8       0x2c build/cooja/mtype91.a(buttons.o)
                0x000000000002a6a8                button_interface
                0x000000000002a6bc                button_hal_button_count
                0x000000000002a6c4                button_sensor
 .rodata        0x000000000002a6d4       0x79 build/cooja/mtype91.a(res_humidity.o)
 .rodata        0x000000000002a74d       0x41 build/cooja/mtype91.a(coap-engine.o)
 .rodata        0x000000000002a78e       0x19 build/cooja/mtype91.a(coap-res-well-k)
 .rodata        0x000000000002a7a7       0x11 build/cooja/mtype91.a(coap-observe.o)
 .rodata        0x000000000002a7b8       0x35 build/cooja/mtype91.a(coap-uip.o)
 *fill*         0x000000000002a7ed        0x3 
 .rodata        0x000000000002a7f0      0x1ac build/cooja/mtype91.a(coap.o)
 .rodata        0x000000000002a99c       0xf4 build/cooja/mtype91.a(contiki-main.o)
 .rodata        0x000000000002aa90        0xf build/cooja/mtype91.a(ctimer.o)
 .rodata        0x000000000002aa9f        0xc build/cooja/mtype91.a(etimer.o)
 *fill*         0x000000000002aaab        0x1 
 .rodata        0x000000000002aaac       0xc4 build/cooja/mtype91.a(log.o)
 .rodata        0x000000000002ab70       0x13 build/cooja/mtype91.a(button-hal.o)
 .rodata        0x000000000002ab83        0xe build/cooja/mtype91.a(serial-line.o)
 *fill*         0x000000000002ab91        0x3 
 .rodata        0x000000000002ab94        0x8 build/cooja/mtype91.a(linkaddr.o)
                0x000000000002ab94                linkaddr_null
 .rodata        0x000000000002ab9c       0x24 build/cooja/mtype91.a(csma.o)
                0x000000000002aba4                csma_driver
 .rodata        0x000000000002abc0       0x24 build/cooja/mtype91.a(csma-output.o)
 .rodata        0x000000000002abe4        0xd build/cooja/mtype91.a(tcpip.o)
 *fill*         0x000000000002abf1        0x3 
 .rodata        0x000000000002abf4       0xb9 build/cooja/mtype91.a(uip-ds6-route.o)
 *fill*         0x000000000002acad        0x3 
 .rodata        0x000000000002acb0       0x30 build/cooja/mtype91.a(sicslowpan.o)
                0x000000000002acb0                unc_llconf
                0x000000000002acb4                unc_ctxconf
                0x000000000002acb8                unc_mxconf
                0x000000000002acbc                llprefix
                0x000000000002acd0                sicslowpan_driver
 .rodata        0x000000000002ace0       0x2d build/cooja/mtype91.a(uiplib.o)
 *fill*         0x000000000002ad0d       0x13 
 .rodata        0x000000000002ad20       0x74 build/cooja/mtype91.a(rpl.o)
                0x000000000002ad40                rpl_lite_driver
 .rodata        0x000000000002ad94       0x20 build/cooja/mtype91.a(coap-timer-defa)
                0x000000000002ada8                coap_timer_default_driver
 .rodata        0x000000000002adb4       0x25 build/cooja/mtype91.a(assert.o)
 *fill*         0x000000000002add9        0x3 
 .rodata        0x000000000002addc        0xc build/cooja/mtype91.a(framer-802154.o)
                0x000000000002addc                framer_802154
 .rodata        0x000000000002ade8       0x44 build/cooja/mtype91.a(uip-sr.o)
 .rodata        0x000000000002ae2c       0x58 build/cooja/mtype91.a(rpl-neighbor.o)
 .rodata        0x000000000002ae84       0xdb build/cooja/mtype91.a(rpl-dag.o)
 .rodata        0x000000000002af5f        0xc build/cooja/mtype91.a(rpl-timers.o)

.rodata1
 *(.rodata1)

.eh_frame_hdr   0x000000000002af6c     0x1a04
 *(.eh_frame_hdr)
 .eh_frame_hdr  0x000000000002af6c     0x1a04 humidity_sensor.o
                0x000000000002af6c                __GNU_EH_FRAME_HDR
 *(.eh_frame_entry .eh_frame_entry.*)

.eh_frame       0x000000000002c970     0x6988
 *(.eh_frame)
 .eh_frame      0x000000000002c970       0x3c /usr/lib/gcc/i686-linux-gnu/5/../../../i386-linux-gnu/crti.o
                                         0x40 (size before relaxing)
 .eh_frame      0x000000000002c9ac       0x40 humidity_sensor.o
                                         0x58 (size before relaxing)
 .eh_frame      0x000000000002c9ec      0x178 build/cooja/mtype91.o
                                        0x190 (size before relaxing)
 .eh_frame      0x000000000002cb64       0x40 build/cooja/mtype91.a(simEnvChange.o)
                                         0x58 (size before relaxing)
 .eh_frame      0x000000000002cba4       0x60 build/cooja/mtype91.a(cooja_mt.o)
                                         0x78 (size before relaxing)
 .eh_frame      0x000000000002cc04       0x80 build/cooja/mtype91.a(cooja_mtarch.o)
                                         0x98 (size before relaxing)
 .eh_frame      0x000000000002cc84       0xc8 build/cooja/mtype91.a(rtimer-arch.o)
                                         0xe0 (size before relaxing)
 .eh_frame      0x000000000002cd4c      0x160 build/cooja/mtype91.a(beep.o)
                                        0x178 (size before relaxing)
 .eh_frame      0x000000000002ceac       0x80 build/cooja/mtype91.a(leds-arch.o)
                                         0x98 (size before relaxing)
 .eh_frame      0x000000000002cf2c       0x40 build/cooja/mtype91.a(moteid.o)
                                         0x58 (size before relaxing)
 .eh_frame      0x000000000002cf6c       0xa0 build/cooja/mtype91.a(pir-sensor.o)
                                         0xb8 (size before relaxing)
 .eh_frame      0x000000000002d00c      0x100 build/cooja/mtype91.a(rs232.o)
                                        0x118 (size before relaxing)
 .eh_frame      0x000000000002d10c       0xa0 build/cooja/mtype91.a(vib-sensor.o)
                                         0xb8 (size before relaxing)
 .eh_frame      0x000000000002d1ac       0xc0 build/cooja/mtype91.a(clock.o)
                                         0xd8 (size before relaxing)
 .eh_frame      0x000000000002d26c      0x120 build/cooja/mtype91.a(cooja-log.o)
                                        0x138 (size before relaxing)
 .eh_frame      0x000000000002d38c      0x160 build/cooja/mtype91.a(cfs-cooja.o)
                                        0x178 (size before relaxing)
 .eh_frame      0x000000000002d4ec      0x340 build/cooja/mtype91.a(cooja-radio.o)
                                        0x358 (size before relaxing)
 .eh_frame      0x000000000002d82c       0xa0 build/cooja/mtype91.a(eeprom.o)
                                         0xb8 (size before relaxing)
 .eh_frame      0x000000000002d8cc       0x40 build/cooja/mtype91.a(random.o)
                                         0x58 (size before relaxing)
 .eh_frame      0x000000000002d90c       0xc0 build/cooja/mtype91.a(sensors.o)
                                         0xd8 (size before relaxing)
 .eh_frame      0x000000000002d9cc      0x120 build/cooja/mtype91.a(leds.o)
                                        0x138 (size before relaxing)
 .eh_frame      0x000000000002daec      0x220 build/cooja/mtype91.a(gpio-hal-arch.o)
                                        0x238 (size before relaxing)
 .eh_frame      0x000000000002dd0c       0xa0 build/cooja/mtype91.a(buttons.o)
                                         0xb8 (size before relaxing)
 .eh_frame      0x000000000002ddac       0x40 build/cooja/mtype91.a(res_humidity.o)
                                         0x58 (size before relaxing)
 .eh_frame      0x000000000002ddec       0x44 build/cooja/mtype91.a(coap-blocking-a)
                                         0x5c (size before relaxing)
 .eh_frame      0x000000000002de30      0x220 build/cooja/mtype91.a(coap-engine.o)
                                        0x238 (size before relaxing)
 .eh_frame      0x000000000002e050       0x24 build/cooja/mtype91.a(coap-res-well-k)
                                         0x3c (size before relaxing)
 .eh_frame      0x000000000002e074      0x188 build/cooja/mtype91.a(coap-observe.o)
                                        0x1a0 (size before relaxing)
 .eh_frame      0x000000000002e1fc      0x100 build/cooja/mtype91.a(coap-transactio)
                                        0x118 (size before relaxing)
 .eh_frame      0x000000000002e2fc      0x250 build/cooja/mtype91.a(coap-uip.o)
                                        0x268 (size before relaxing)
 .eh_frame      0x000000000002e54c      0x114 build/cooja/mtype91.a(coap-timer.o)
                                        0x12c (size before relaxing)
 .eh_frame      0x000000000002e660      0x6ec build/cooja/mtype91.a(coap.o)
                                        0x704 (size before relaxing)
 .eh_frame      0x000000000002ed4c       0x30 build/cooja/mtype91.a(contiki-main.o)
                                         0x48 (size before relaxing)
 .eh_frame      0x000000000002ed7c       0x40 build/cooja/mtype91.a(autostart.o)
                                         0x58 (size before relaxing)
 .eh_frame      0x000000000002edbc      0x100 build/cooja/mtype91.a(ctimer.o)
                                        0x118 (size before relaxing)
 .eh_frame      0x000000000002eebc       0x60 build/cooja/mtype91.a(energest.o)
                                         0x78 (size before relaxing)
 .eh_frame      0x000000000002ef1c      0x1e0 build/cooja/mtype91.a(etimer.o)
                                        0x1f8 (size before relaxing)
 .eh_frame      0x000000000002f0fc      0x100 build/cooja/mtype91.a(log.o)
                                        0x118 (size before relaxing)
 .eh_frame      0x000000000002f1fc       0x60 build/cooja/mtype91.a(rtimer.o)
                                         0x78 (size before relaxing)
 .eh_frame      0x000000000002f25c       0x20 build/cooja/mtype91.a(node-id.o)
                                         0x38 (size before relaxing)
 .eh_frame      0x000000000002f27c      0x1c4 build/cooja/mtype91.a(process.o)
                                        0x1dc (size before relaxing)
 .eh_frame      0x000000000002f440       0xa4 build/cooja/mtype91.a(timer.o)
                                         0xbc (size before relaxing)
 .eh_frame      0x000000000002f4e4      0x1a0 build/cooja/mtype91.a(list.o)
                                        0x1b8 (size before relaxing)
 .eh_frame      0x000000000002f684       0xa0 build/cooja/mtype91.a(memb.o)
                                         0xb8 (size before relaxing)
 .eh_frame      0x000000000002f724      0x144 build/cooja/mtype91.a(button-hal.o)
                                        0x15c (size before relaxing)
 .eh_frame      0x000000000002f868       0x60 build/cooja/mtype91.a(serial-line.o)
                                         0x78 (size before relaxing)
 .eh_frame      0x000000000002f8c8       0xe0 build/cooja/mtype91.a(gpio-hal.o)
                                         0xf8 (size before relaxing)
 .eh_frame      0x000000000002f9a8      0x1a0 build/cooja/mtype91.a(queuebuf.o)
                                        0x1b8 (size before relaxing)
 .eh_frame      0x000000000002fb48      0x28c build/cooja/mtype91.a(packetbuf.o)
                                        0x2a4 (size before relaxing)
 .eh_frame      0x000000000002fdd4       0x80 build/cooja/mtype91.a(netstack.o)
                                         0x98 (size before relaxing)
 .eh_frame      0x000000000002fe54       0x60 build/cooja/mtype91.a(linkaddr.o)
                                         0x78 (size before relaxing)
 .eh_frame      0x000000000002feb4       0xe0 build/cooja/mtype91.a(csma.o)
                                         0xf8 (size before relaxing)
 .eh_frame      0x000000000002ff94      0x1d0 build/cooja/mtype91.a(csma-output.o)
                                        0x1e8 (size before relaxing)
 .eh_frame      0x0000000000030164      0x328 build/cooja/mtype91.a(uip-ds6.o)
                                        0x340 (size before relaxing)
 .eh_frame      0x000000000003048c      0x244 build/cooja/mtype91.a(tcpip.o)
                                        0x25c (size before relaxing)
 .eh_frame      0x00000000000306d0       0x40 build/cooja/mtype91.a(uip-udp-packet.)
                                         0x58 (size before relaxing)
 .eh_frame      0x0000000000030710      0x2e0 build/cooja/mtype91.a(uip-ds6-route.o)
                                        0x2f8 (size before relaxing)
 .eh_frame      0x00000000000309f0      0x1c0 build/cooja/mtype91.a(uip-ds6-nbr.o)
                                        0x1d8 (size before relaxing)
 .eh_frame      0x0000000000030bb0      0x1e8 build/cooja/mtype91.a(uip6.o)
                                        0x200 (size before relaxing)
 .eh_frame      0x0000000000030d98       0x84 build/cooja/mtype91.a(uip-nd6.o)
                                         0x9c (size before relaxing)
 .eh_frame      0x0000000000030e1c      0x2f8 build/cooja/mtype91.a(sicslowpan.o)
                                        0x310 (size before relaxing)
 .eh_frame      0x0000000000031114       0x88 build/cooja/mtype91.a(uiplib.o)
                                         0xa0 (size before relaxing)
 .eh_frame      0x000000000003119c      0x1e0 build/cooja/mtype91.a(rpl.o)
                                        0x1f8 (size before relaxing)
 .eh_frame      0x000000000003137c      0x1c4 build/cooja/mtype91.a(rpl-icmp6.o)
                                        0x1dc (size before relaxing)
 .eh_frame      0x0000000000031540       0xa0 build/cooja/mtype91.a(rpl-dag-root.o)
                                         0xb8 (size before relaxing)
 .eh_frame      0x00000000000315e0       0xa0 build/cooja/mtype91.a(watchdog.o)
                                         0xb8 (size before relaxing)
 .eh_frame      0x0000000000031680       0x80 build/cooja/mtype91.a(int-master.o)
                                         0x98 (size before relaxing)
 .eh_frame      0x0000000000031700       0xa4 build/cooja/mtype91.a(coap-timer-defa)
                                         0xbc (size before relaxing)
 .eh_frame      0x00000000000317a4       0xc4 build/cooja/mtype91.a(stimer.o)
                                         0xdc (size before relaxing)
 .eh_frame      0x0000000000031868       0xa0 build/cooja/mtype91.a(ringbuf.o)
                                         0xb8 (size before relaxing)
 .eh_frame      0x0000000000031908       0x20 build/cooja/mtype91.a(assert.o)
                                         0x38 (size before relaxing)
 .eh_frame      0x0000000000031928      0x2ac build/cooja/mtype91.a(nbr-table.o)
                                        0x2c4 (size before relaxing)
 .eh_frame      0x0000000000031bd4      0x120 build/cooja/mtype91.a(link-stats.o)
                                        0x138 (size before relaxing)
 .eh_frame      0x0000000000031cf4       0x48 build/cooja/mtype91.a(mac-sequence.o)
                                         0x60 (size before relaxing)
 .eh_frame      0x0000000000031d3c       0x20 build/cooja/mtype91.a(mac.o)
                                         0x38 (size before relaxing)
 .eh_frame      0x0000000000031d5c       0xa4 build/cooja/mtype91.a(framer-802154.o)
                                         0xbc (size before relaxing)
 .eh_frame      0x0000000000031e00      0x1a4 build/cooja/mtype91.a(frame802154.o)
                                        0x1bc (size before relaxing)
 .eh_frame      0x0000000000031fa4       0x40 build/cooja/mtype91.a(csma-security.o)
                                         0x58 (size before relaxing)
 .eh_frame      0x0000000000031fe4      0x200 build/cooja/mtype91.a(uipbuf.o)
                                        0x218 (size before relaxing)
 .eh_frame      0x00000000000321e4      0x150 build/cooja/mtype91.a(uip-icmp6.o)
                                        0x168 (size before relaxing)
 .eh_frame      0x0000000000032334      0x184 build/cooja/mtype91.a(uip-sr.o)
                                        0x19c (size before relaxing)
 .eh_frame      0x00000000000324b8       0xe0 build/cooja/mtype91.a(uip-packetqueue)
                                         0xf8 (size before relaxing)
 .eh_frame      0x0000000000032598       0x80 build/cooja/mtype91.a(rpl-nbr-policy.)
                                         0x98 (size before relaxing)
 .eh_frame      0x0000000000032618      0x2d4 build/cooja/mtype91.a(rpl-neighbor.o)
                                        0x2ec (size before relaxing)
 .eh_frame      0x00000000000328ec      0x370 build/cooja/mtype91.a(rpl-dag.o)
                                        0x388 (size before relaxing)
 .eh_frame      0x0000000000032c5c      0x3a8 build/cooja/mtype91.a(rpl-timers.o)
                                        0x3c0 (size before relaxing)
 .eh_frame      0x0000000000033004      0x124 build/cooja/mtype91.a(rpl-ext-header.)
                                        0x13c (size before relaxing)
 .eh_frame      0x0000000000033128      0x148 build/cooja/mtype91.a(rpl-mrhof.o)
                                        0x160 (size before relaxing)
 .eh_frame      0x0000000000033270       0x84 /usr/lib/gcc/i686-linux-gnu/5/libgcc.a(_udivdi3.o)
                                         0x9c (size before relaxing)
 .eh_frame      0x00000000000332f4        0x4 /usr/lib/gcc/i686-linux-gnu/5/crtendS.o
 *(.eh_frame.*)

.gcc_except_table
 *(.gcc_except_table .gcc_except_table.*)

.gnu_extab
 *(.gnu_extab*)

.exception_ranges
 *(.exception_ranges .exception_ranges*)
                0x0000000000034f10                . = DATA_SEGMENT_ALIGN (0x1000, 0x1000)

.eh_frame
 *(.eh_frame)
 *(.eh_frame.*)

.gnu_extab
 *(.gnu_extab)

.gcc_except_table
 *(.gcc_except_table .gcc_except_table.*)

.exception_ranges
 *(.exception_ranges .exception_ranges*)

.tdata
 *(.tdata .tdata.* .gnu.linkonce.td.*)

.tbss
 *(.tbss .tbss.* .gnu.linkonce.tb.*)
 *(.tcommon)

.preinit_array
 *(.preinit_array)

.init_array     0x0000000000034f10        0x4
 *(SORT(.init_array.*) SORT(.ctors.*))
 *(.init_array EXCLUDE_FILE(*crtend?.o *crtend.o *crtbegin?.o *crtbegin.o) .ctors)
 .init_array    0x0000000000034f10        0x4 /usr/lib/gcc/i686-linux-gnu/5/crtbeginS.o

.fini_array     0x0000000000034f14        0x4
 *(SORT(.fini_array.*) SORT(.dtors.*))
 *(.fini_array EXCLUDE_FILE(*crtend?.o *crtend.o *crtbegin?.o *crtbegin.o) .dtors)
 .fini_array    0x0000000000034f14        0x4 /usr/lib/gcc/i686-linux-gnu/5/crtbeginS.o

.ctors
 *crtbegin.o(.ctors)
 *crtbegin?.o(.ctors)
 *(EXCLUDE_FILE(*crtend?.o *crtend.o) .ctors)
 *(SORT(.ctors.*))
 *(.ctors)

.dtors
 *crtbegin.o(.dtors)
 *crtbegin?.o(.dtors)
 *(EXCLUDE_FILE(*crtend?.o *crtend.o) .dtors)
 *(SORT(.dtors.*))
 *(.dtors)

.jcr            0x0000000000034f18        0x4
 *(.jcr)
 .jcr           0x0000000000034f18        0x0 /usr/lib/gcc/i686-linux-gnu/5/crtbeginS.o
 .jcr           0x0000000000034f18        0x4 /usr/lib/gcc/i686-linux-gnu/5/crtendS.o

.data.rel.ro
 *(.data.rel.ro.local* .gnu.linkonce.d.rel.ro.local.*)
 *(.data.rel.ro .data.rel.ro.* .gnu.linkonce.d.rel.ro.*)

.dynamic        0x0000000000034f1c       0xd0
 *(.dynamic)
 .dynamic       0x0000000000034f1c       0xd0 /usr/lib/gcc/i686-linux-gnu/5/../../../i386-linux-gnu/crti.o
                0x0000000000034f1c                _DYNAMIC

.got            0x0000000000034fec       0x14
 *(.got)
 .got           0x0000000000034fec       0x14 /usr/lib/gcc/i686-linux-gnu/5/../../../i386-linux-gnu/crti.o
 *(.igot)
                0x0000000000035ff4                . = DATA_SEGMENT_RELRO_END (., (SIZEOF (.got.plt) >= 0xc)?0xc:0x0)

.got.plt        0x0000000000035000        0xc
 *(.got.plt)
 .got.plt       0x0000000000035000        0xc /usr/lib/gcc/i686-linux-gnu/5/../../../i386-linux-gnu/crti.o
                0x0000000000035000                _GLOBAL_OFFSET_TABLE_
 *(.igot.plt)

.data           0x0000000000035020      0x484
 *(.data .data.* .gnu.linkonce.d.*)
 .data          0x0000000000035020        0x0 /usr/lib/gcc/i686-linux-gnu/5/../../../i386-linux-gnu/crti.o
 .data          0x0000000000035020        0x0 /usr/lib/gcc/i686-linux-gnu/5/crtbeginS.o
 .data.rel.local
                0x0000000000035020        0x4 /usr/lib/gcc/i686-linux-gnu/5/crtbeginS.o
                0x0000000000035020                __dso_handle
 .data          0x0000000000035024       0x10 humidity_sensor.o
                0x0000000000035024                humidity_sensor
 *fill*         0x0000000000035034        0xc 
 .data          0x0000000000035040       0x44 build/cooja/mtype91.o
                0x0000000000035040                simInterfaces
                0x0000000000035074                sensors
 .data          0x0000000000035084        0x0 build/cooja/mtype91.a(simEnvChange.o)
 .data          0x0000000000035084        0x0 build/cooja/mtype91.a(cooja_mt.o)
 .data          0x0000000000035084        0x0 build/cooja/mtype91.a(cooja_mtarch.o)
 .data          0x0000000000035084        0x0 build/cooja/mtype91.a(rtimer-arch.o)
 .data          0x0000000000035084        0x0 build/cooja/mtype91.a(beep.o)
 .data          0x0000000000035084        0x0 build/cooja/mtype91.a(leds-arch.o)
 .data          0x0000000000035084        0x0 build/cooja/mtype91.a(moteid.o)
 .data          0x0000000000035084        0x0 build/cooja/mtype91.a(pir-sensor.o)
 .data          0x0000000000035084        0x0 build/cooja/mtype91.a(rs232.o)
 .data          0x0000000000035084        0x0 build/cooja/mtype91.a(vib-sensor.o)
 .data          0x0000000000035084        0x0 build/cooja/mtype91.a(clock.o)
 .data          0x0000000000035084        0x0 build/cooja/mtype91.a(cooja-log.o)
 .data          0x0000000000035084        0x0 build/cooja/mtype91.a(cfs-cooja.o)
 .data          0x0000000000035084       0x2c build/cooja/mtype91.a(cooja-radio.o)
                0x0000000000035084                simRadioHWOn
                0x0000000000035088                simSignalStrength
                0x000000000003508c                simLastSignalStrength
                0x0000000000035090                simPower
                0x0000000000035094                simRadioChannel
                0x0000000000035098                simLQI
                0x00000000000350a0                cooja_radio_process
 .data          0x00000000000350b0        0x0 build/cooja/mtype91.a(eeprom.o)
 .data          0x00000000000350b0        0x0 build/cooja/mtype91.a(random.o)
 .data          0x00000000000350b0       0x10 build/cooja/mtype91.a(sensors.o)
                0x00000000000350b0                sensors_process
 .data          0x00000000000350c0        0x0 build/cooja/mtype91.a(leds.o)
 .data          0x00000000000350c0        0x0 build/cooja/mtype91.a(gpio-hal-arch.o)
 .data          0x00000000000350c0       0x78 build/cooja/mtype91.a(buttons.o)
                0x00000000000350c0                simButtonIsActive
                0x0000000000035130                button_hal_buttons
 *fill*         0x0000000000035138        0x8 
 .data          0x0000000000035140       0x44 build/cooja/mtype91.a(res_humidity.o)
                0x0000000000035140                humidity
                0x0000000000035144                last_humidity
                0x0000000000035160                res_humidity
 .data          0x0000000000035184        0x0 build/cooja/mtype91.a(coap-blocking-a)
 .data          0x0000000000035184        0x8 build/cooja/mtype91.a(coap-engine.o)
 *fill*         0x000000000003518c       0x14 
 .data          0x00000000000351a0       0x24 build/cooja/mtype91.a(coap-res-well-k)
                0x00000000000351a0                res_well_known_core
 .data          0x00000000000351c4       0x10 build/cooja/mtype91.a(coap-observe.o)
 .data          0x00000000000351d4       0x10 build/cooja/mtype91.a(coap-transactio)
 .data          0x00000000000351e4       0x10 build/cooja/mtype91.a(coap-uip.o)
                0x00000000000351e4                coap_engine
 .data          0x00000000000351f4        0x4 build/cooja/mtype91.a(coap-timer.o)
 .data          0x00000000000351f8        0x4 build/cooja/mtype91.a(coap.o)
                0x00000000000351f8                coap_error_message
 .data          0x00000000000351fc        0x0 build/cooja/mtype91.a(contiki-main.o)
 .data          0x00000000000351fc        0x0 build/cooja/mtype91.a(autostart.o)
 .data          0x00000000000351fc       0x14 build/cooja/mtype91.a(ctimer.o)
                0x0000000000035200                ctimer_process
 .data          0x0000000000035210        0x0 build/cooja/mtype91.a(energest.o)
 .data          0x0000000000035210       0x10 build/cooja/mtype91.a(etimer.o)
                0x0000000000035210                etimer_process
 .data          0x0000000000035220       0xbc build/cooja/mtype91.a(log.o)
                0x0000000000035220                curr_log_level_main
                0x0000000000035240                all_modules
 .data          0x00000000000352dc        0x0 build/cooja/mtype91.a(rtimer.o)
 .data          0x00000000000352dc        0x0 build/cooja/mtype91.a(node-id.o)
 .data          0x00000000000352dc        0x0 build/cooja/mtype91.a(process.o)
 .data          0x00000000000352dc        0x0 build/cooja/mtype91.a(timer.o)
 .data          0x00000000000352dc        0x0 build/cooja/mtype91.a(list.o)
 .data          0x00000000000352dc        0x0 build/cooja/mtype91.a(memb.o)
 .data          0x00000000000352dc       0x10 build/cooja/mtype91.a(button-hal.o)
                0x00000000000352dc                button_hal_process
 .data          0x00000000000352ec       0x10 build/cooja/mtype91.a(serial-line.o)
                0x00000000000352ec                serial_line_process
 .data          0x00000000000352fc        0x4 build/cooja/mtype91.a(gpio-hal.o)
 .data          0x0000000000035300       0x18 build/cooja/mtype91.a(queuebuf.o)
 .data          0x0000000000035318        0x4 build/cooja/mtype91.a(packetbuf.o)
 .data          0x000000000003531c        0x4 build/cooja/mtype91.a(netstack.o)
 .data          0x0000000000035320        0x0 build/cooja/mtype91.a(linkaddr.o)
 .data          0x0000000000035320        0x0 build/cooja/mtype91.a(csma.o)
 .data          0x0000000000035320       0x28 build/cooja/mtype91.a(csma-output.o)
 .data          0x0000000000035348        0x0 build/cooja/mtype91.a(uip-ds6.o)
 .data          0x0000000000035348       0x10 build/cooja/mtype91.a(tcpip.o)
                0x0000000000035348                tcpip_process
 .data          0x0000000000035358        0x0 build/cooja/mtype91.a(uip-udp-packet.)
 .data          0x0000000000035358       0x44 build/cooja/mtype91.a(uip-ds6-route.o)
                0x0000000000035368                nbr_routes
 .data          0x000000000003539c       0x14 build/cooja/mtype91.a(uip-ds6-nbr.o)
 .data          0x00000000000353b0        0x0 build/cooja/mtype91.a(uip6.o)
 .data          0x00000000000353b0        0xc build/cooja/mtype91.a(uip-nd6.o)
 .data          0x00000000000353bc        0x0 build/cooja/mtype91.a(sicslowpan.o)
 .data          0x00000000000353bc        0x0 build/cooja/mtype91.a(uiplib.o)
 .data          0x00000000000353bc        0x0 build/cooja/mtype91.a(rpl.o)
 .data          0x00000000000353bc       0x30 build/cooja/mtype91.a(rpl-icmp6.o)
 .data          0x00000000000353ec        0x0 build/cooja/mtype91.a(rpl-dag-root.o)
 .data          0x00000000000353ec        0x0 build/cooja/mtype91.a(watchdog.o)
 .data          0x00000000000353ec        0x0 build/cooja/mtype91.a(int-master.o)
 .data          0x00000000000353ec       0x10 build/cooja/mtype91.a(coap-timer-defa)
                0x00000000000353ec                coap_timer_process
 .data          0x00000000000353fc        0x0 build/cooja/mtype91.a(stimer.o)
 .data          0x00000000000353fc        0x0 build/cooja/mtype91.a(ringbuf.o)
 .data          0x00000000000353fc        0x0 build/cooja/mtype91.a(assert.o)
 .data          0x00000000000353fc       0x10 build/cooja/mtype91.a(nbr-table.o)
 .data          0x000000000003540c       0x14 build/cooja/mtype91.a(link-stats.o)
 .data          0x0000000000035420        0x0 build/cooja/mtype91.a(mac-sequence.o)
 .data          0x0000000000035420        0x0 build/cooja/mtype91.a(mac.o)
 .data          0x0000000000035420        0x0 build/cooja/mtype91.a(framer-802154.o)
 .data          0x0000000000035420        0x2 build/cooja/mtype91.a(frame802154.o)
 .data          0x0000000000035422        0x0 build/cooja/mtype91.a(csma-security.o)
 .data          0x0000000000035422        0x0 build/cooja/mtype91.a(uipbuf.o)
 *fill*         0x0000000000035422        0x2 
 .data          0x0000000000035424       0x20 build/cooja/mtype91.a(uip-icmp6.o)
 .data          0x0000000000035444       0x10 build/cooja/mtype91.a(uip-sr.o)
 .data          0x0000000000035454        0xc build/cooja/mtype91.a(uip-packetqueue)
 .data          0x0000000000035460        0x0 build/cooja/mtype91.a(rpl-nbr-policy.)
 .data          0x0000000000035460       0x14 build/cooja/mtype91.a(rpl-neighbor.o)
                0x0000000000035470                rpl_neighbors
 .data          0x0000000000035474        0x0 build/cooja/mtype91.a(rpl-dag.o)
 .data          0x0000000000035474        0x0 build/cooja/mtype91.a(rpl-timers.o)
 .data          0x0000000000035474        0x0 build/cooja/mtype91.a(rpl-ext-header.)
 *fill*         0x0000000000035474        0xc 
 .data          0x0000000000035480       0x24 build/cooja/mtype91.a(rpl-mrhof.o)
                0x0000000000035480                rpl_mrhof
 .data          0x00000000000354a4        0x0 /usr/lib/gcc/i686-linux-gnu/5/libgcc.a(_udivdi3.o)
 .data          0x00000000000354a4        0x0 /usr/lib/gcc/i686-linux-gnu/5/crtendS.o
 .data          0x00000000000354a4        0x0 /usr/lib/gcc/i686-linux-gnu/5/../../../i386-linux-gnu/crtn.o

.tm_clone_table
                0x00000000000354a4        0x0
 .tm_clone_table
                0x00000000000354a4        0x0 /usr/lib/gcc/i686-linux-gnu/5/crtbeginS.o
 .tm_clone_table
                0x00000000000354a4        0x0 /usr/lib/gcc/i686-linux-gnu/5/crtendS.o

.data1
 *(.data1)
                0x00000000000354a4                _edata = .
                [!provide]                        PROVIDE (edata, .)
                0x00000000000354a4                . = .
                0x00000000000354a4                __bss_start = .

.bss            0x00000000000354c0     0xf264
 *(.dynbss)
 .dynbss        0x00000000000354c0        0x0 /usr/lib/gcc/i686-linux-gnu/5/../../../i386-linux-gnu/crti.o
 *(.bss .bss.* .gnu.linkonce.b.*)
 .bss           0x00000000000354c0        0x0 /usr/lib/gcc/i686-linux-gnu/5/../../../i386-linux-gnu/crti.o
 .bss           0x00000000000354c0        0x1 /usr/lib/gcc/i686-linux-gnu/5/crtbeginS.o
 *fill*         0x00000000000354c1       0x1f 
 .bss           0x00000000000354e0      0x11c humidity_sensor.o
 *fill*         0x00000000000355fc        0x4 
 .bss           0x0000000000035600     0x2030 build/cooja/mtype91.o
 .bss           0x0000000000037630        0x1 build/cooja/mtype91.a(simEnvChange.o)
                0x0000000000037630                simDontFallAsleep
 *fill*         0x0000000000037631        0x3 
 .bss           0x0000000000037634        0x4 build/cooja/mtype91.a(cooja_mt.o)
 .bss           0x0000000000037638        0x4 build/cooja/mtype91.a(cooja_mtarch.o)
 .bss           0x000000000003763c        0x0 build/cooja/mtype91.a(rtimer-arch.o)
 .bss           0x000000000003763c        0x0 build/cooja/mtype91.a(beep.o)
 .bss           0x000000000003763c        0x1 build/cooja/mtype91.a(leds-arch.o)
                0x000000000003763c                simLedsValue
 .bss           0x000000000003763d        0x0 build/cooja/mtype91.a(moteid.o)
 .bss           0x000000000003763d        0x1 build/cooja/mtype91.a(pir-sensor.o)
                0x000000000003763d                simPirValue
 *fill*         0x000000000003763e        0x2 
 .bss           0x0000000000037640        0x4 build/cooja/mtype91.a(rs232.o)
 .bss           0x0000000000037644        0x1 build/cooja/mtype91.a(vib-sensor.o)
                0x0000000000037644                simVibValue
 .bss           0x0000000000037645        0x0 build/cooja/mtype91.a(clock.o)
 *fill*         0x0000000000037645       0x1b 
 .bss           0x0000000000037660     0x2020 build/cooja/mtype91.a(cooja-log.o)
 .bss           0x0000000000039680      0xfc0 build/cooja/mtype91.a(cfs-cooja.o)
                0x0000000000039680                simCFSData
                0x000000000003a620                simCFSSize
                0x000000000003a624                simCFSChanged
                0x000000000003a628                simCFSRead
                0x000000000003a62c                simCFSWritten
 .bss           0x000000000003a640       0x24 build/cooja/mtype91.a(cooja-radio.o)
                0x000000000003a640                simReceiving
                0x000000000003a644                simInSize
                0x000000000003a648                simLastPacketTimestamp
                0x000000000003a650                simOutSize
 .bss           0x000000000003a664        0xc build/cooja/mtype91.a(eeprom.o)
                0x000000000003a664                simEEPROMChanged
                0x000000000003a668                simEEPROMRead
                0x000000000003a66c                simEEPROMWritten
 .bss           0x000000000003a670        0x0 build/cooja/mtype91.a(random.o)
 .bss           0x000000000003a670        0xc build/cooja/mtype91.a(sensors.o)
 .bss           0x000000000003a67c        0x0 build/cooja/mtype91.a(leds.o)
 .bss           0x000000000003a67c       0x24 build/cooja/mtype91.a(gpio-hal-arch.o)
 .bss           0x000000000003a6a0        0x0 build/cooja/mtype91.a(buttons.o)
 .bss           0x000000000003a6a0        0x0 build/cooja/mtype91.a(res_humidity.o)
 .bss           0x000000000003a6a0        0x0 build/cooja/mtype91.a(coap-blocking-a)
 .bss           0x000000000003a6a0      0x190 build/cooja/mtype91.a(coap-engine.o)
 .bss           0x000000000003a830        0x0 build/cooja/mtype91.a(coap-res-well-k)
 *fill*         0x000000000003a830       0x10 
 .bss           0x000000000003a840      0x120 build/cooja/mtype91.a(coap-observe.o)
 .bss           0x000000000003a960      0x334 build/cooja/mtype91.a(coap-transactio)
 .bss           0x000000000003ac94       0x18 build/cooja/mtype91.a(coap-uip.o)
 .bss           0x000000000003acac        0x5 build/cooja/mtype91.a(coap-timer.o)
 *fill*         0x000000000003acb1        0x3 
 .bss           0x000000000003acb4        0x6 build/cooja/mtype91.a(coap.o)
                0x000000000003acb4                coap_status_code
 .bss           0x000000000003acba        0x0 build/cooja/mtype91.a(contiki-main.o)
 .bss           0x000000000003acba        0x0 build/cooja/mtype91.a(autostart.o)
 *fill*         0x000000000003acba        0x2 
 .bss           0x000000000003acbc        0x5 build/cooja/mtype91.a(ctimer.o)
 .bss           0x000000000003acc1        0x0 build/cooja/mtype91.a(energest.o)
 *fill*         0x000000000003acc1        0x3 
 .bss           0x000000000003acc4        0x8 build/cooja/mtype91.a(etimer.o)
 .bss           0x000000000003accc       0x2c build/cooja/mtype91.a(log.o)
                0x000000000003accc                curr_log_level_rpl
                0x000000000003acd0                curr_log_level_tcpip
                0x000000000003acd4                curr_log_level_ipv6
                0x000000000003acd8                curr_log_level_6lowpan
                0x000000000003acdc                curr_log_level_nullnet
                0x000000000003ace0                curr_log_level_mac
                0x000000000003ace4                curr_log_level_framer
                0x000000000003ace8                curr_log_level_6top
                0x000000000003acec                curr_log_level_coap
                0x000000000003acf0                curr_log_level_snmp
                0x000000000003acf4                curr_log_level_lwm2m
 .bss           0x000000000003acf8        0x4 build/cooja/mtype91.a(rtimer.o)
 .bss           0x000000000003acfc        0x2 build/cooja/mtype91.a(node-id.o)
                0x000000000003acfc                node_id
 *fill*         0x000000000003acfe        0x2 
 .bss           0x000000000003ad00      0x1a1 build/cooja/mtype91.a(process.o)
                0x000000000003ad00                process_list
                0x000000000003ad04                process_current
 .bss           0x000000000003aea1        0x0 build/cooja/mtype91.a(timer.o)
 .bss           0x000000000003aea1        0x0 build/cooja/mtype91.a(list.o)
 .bss           0x000000000003aea1        0x0 build/cooja/mtype91.a(memb.o)
 *fill*         0x000000000003aea1        0x3 
 .bss           0x000000000003aea4       0x10 build/cooja/mtype91.a(button-hal.o)
 *fill*         0x000000000003aeb4        0xc 
 .bss           0x000000000003aec0      0x140 build/cooja/mtype91.a(serial-line.o)
 .bss           0x000000000003b000        0x4 build/cooja/mtype91.a(gpio-hal.o)
 *fill*         0x000000000003b004       0x1c 
 .bss           0x000000000003b020     0x2c80 build/cooja/mtype91.a(queuebuf.o)
 .bss           0x000000000003dca0       0xa0 build/cooja/mtype91.a(packetbuf.o)
 .bss           0x000000000003dd40        0x4 build/cooja/mtype91.a(netstack.o)
 .bss           0x000000000003dd44        0x0 build/cooja/mtype91.a(linkaddr.o)
 .bss           0x000000000003dd44        0x0 build/cooja/mtype91.a(csma.o)
 *fill*         0x000000000003dd44       0x1c 
 .bss           0x000000000003dd60      0x726 build/cooja/mtype91.a(csma-output.o)
 *fill*         0x000000000003e486        0x2 
 .bss           0x000000000003e488       0x30 build/cooja/mtype91.a(uip-ds6.o)
 .bss           0x000000000003e4b8       0x10 build/cooja/mtype91.a(tcpip.o)
 .bss           0x000000000003e4c8        0x0 build/cooja/mtype91.a(uip-udp-packet.)
 *fill*         0x000000000003e4c8       0x18 
 .bss           0x000000000003e4e0      0x2a4 build/cooja/mtype91.a(uip-ds6-route.o)
 *fill*         0x000000000003e784       0x1c 
 .bss           0x000000000003e7a0       0xf0 build/cooja/mtype91.a(uip-ds6-nbr.o)
 .bss           0x000000000003e890        0x8 build/cooja/mtype91.a(uip6.o)
                0x000000000003e890                uip_ext_bitmap
                0x000000000003e892                uip_ext_len
                0x000000000003e894                uip_last_proto
 .bss           0x000000000003e898       0x10 build/cooja/mtype91.a(uip-nd6.o)
 *fill*         0x000000000003e8a8       0x18 
 .bss           0x000000000003e8c0      0x724 build/cooja/mtype91.a(sicslowpan.o)
 .bss           0x000000000003efe4        0x0 build/cooja/mtype91.a(uiplib.o)
 .bss           0x000000000003efe4        0x1 build/cooja/mtype91.a(rpl.o)
 .bss           0x000000000003efe5        0x0 build/cooja/mtype91.a(rpl-icmp6.o)
 *fill*         0x000000000003efe5        0x3 
 .bss           0x000000000003efe8       0x11 build/cooja/mtype91.a(rpl-dag-root.o)
 .bss           0x000000000003eff9        0x0 build/cooja/mtype91.a(watchdog.o)
 *fill*         0x000000000003eff9        0x3 
 .bss           0x000000000003effc        0x4 build/cooja/mtype91.a(int-master.o)
 .bss           0x000000000003f000       0x1c build/cooja/mtype91.a(coap-timer-defa)
 .bss           0x000000000003f01c        0x0 build/cooja/mtype91.a(stimer.o)
 .bss           0x000000000003f01c        0x0 build/cooja/mtype91.a(ringbuf.o)
 .bss           0x000000000003f01c        0x0 build/cooja/mtype91.a(assert.o)
 *fill*         0x000000000003f01c        0x4 
 .bss           0x000000000003f020       0xdc build/cooja/mtype91.a(nbr-table.o)
 *fill*         0x000000000003f0fc        0x4 
 .bss           0x000000000003f100       0x78 build/cooja/mtype91.a(link-stats.o)
 *fill*         0x000000000003f178        0x8 
 .bss           0x000000000003f180      0x100 build/cooja/mtype91.a(mac-sequence.o)
 .bss           0x000000000003f280        0x0 build/cooja/mtype91.a(mac.o)
 .bss           0x000000000003f280        0x2 build/cooja/mtype91.a(framer-802154.o)
 .bss           0x000000000003f282        0x0 build/cooja/mtype91.a(frame802154.o)
 .bss           0x000000000003f282        0x0 build/cooja/mtype91.a(csma-security.o)
 *fill*         0x000000000003f282        0x2 
 .bss           0x000000000003f284       0x18 build/cooja/mtype91.a(uipbuf.o)
 .bss           0x000000000003f29c       0x18 build/cooja/mtype91.a(uip-icmp6.o)
 *fill*         0x000000000003f2b4        0xc 
 .bss           0x000000000003f2c0     0x1d80 build/cooja/mtype91.a(uip-sr.o)
 .bss           0x0000000000041040      0x258 build/cooja/mtype91.a(uip-packetqueue)
 .bss           0x0000000000041298        0xe build/cooja/mtype91.a(rpl-nbr-policy.)
 *fill*         0x00000000000412a6       0x1a 
 .bss           0x00000000000412c0       0x50 build/cooja/mtype91.a(rpl-neighbor.o)
 .bss           0x0000000000041310        0x0 build/cooja/mtype91.a(rpl-dag.o)
 *fill*         0x0000000000041310       0x10 
 .bss           0x0000000000041320       0x40 build/cooja/mtype91.a(rpl-timers.o)
 .bss           0x0000000000041360        0x0 build/cooja/mtype91.a(rpl-ext-header.)
 .bss           0x0000000000041360        0x0 build/cooja/mtype91.a(rpl-mrhof.o)
 .bss           0x0000000000041360        0x0 /usr/lib/gcc/i686-linux-gnu/5/libgcc.a(_udivdi3.o)
 .bss           0x0000000000041360        0x0 /usr/lib/gcc/i686-linux-gnu/5/crtendS.o
 .bss           0x0000000000041360        0x0 /usr/lib/gcc/i686-linux-gnu/5/../../../i386-linux-gnu/crtn.o
 *(COMMON)
 COMMON         0x0000000000041360        0x4 humidity_sensor.o
                0x0000000000041360                TIME
 COMMON         0x0000000000041364        0x8 build/cooja/mtype91.o
                0x0000000000041364                referenceVar
                0x0000000000041368                sensors_flags
 COMMON         0x000000000004136c        0xc build/cooja/mtype91.a(simEnvChange.o)
                0x000000000004136c                simEtimerPending
                0x0000000000041370                simProcessRunValue
                0x0000000000041374                simEtimerNextExpirationTime
 COMMON         0x0000000000041378       0x18 build/cooja/mtype91.a(rtimer-arch.o)
                0x0000000000041378                simRtimerPending
                0x0000000000041380                simRtimerCurrentTicks
                0x0000000000041388                simRtimerNextExpirationTime
 COMMON         0x0000000000041390        0x1 build/cooja/mtype91.a(beep.o)
                0x0000000000041390                simBeeped
 *fill*         0x0000000000041391        0x3 
 COMMON         0x0000000000041394        0xc build/cooja/mtype91.a(moteid.o)
                0x0000000000041394                simRandomSeed
                0x0000000000041398                simMoteIDChanged
                0x000000000004139c                simMoteID
 COMMON         0x00000000000413a0        0x2 build/cooja/mtype91.a(pir-sensor.o)
                0x00000000000413a0                simPirIsActive
                0x00000000000413a1                simPirChanged
 *fill*         0x00000000000413a2       0x1e 
 COMMON         0x00000000000413c0      0x820 build/cooja/mtype91.a(rs232.o)
                0x00000000000413c0                simSerialReceivingFlag
                0x00000000000413c4                simSerialReceivingLength
                0x00000000000413e0                simSerialReceivingData
 COMMON         0x0000000000041be0        0x2 build/cooja/mtype91.a(vib-sensor.o)
                0x0000000000041be0                simVibChanged
                0x0000000000041be1                simVibIsActive
 *fill*         0x0000000000041be2        0x2 
 COMMON         0x0000000000041be4        0x4 build/cooja/mtype91.a(clock.o)
                0x0000000000041be4                simCurrentTime
 *fill*         0x0000000000041be8       0x18 
 COMMON         0x0000000000041c00     0x2020 build/cooja/mtype91.a(cooja-log.o)
                0x0000000000041c00                simLoggedLength
                0x0000000000041c04                simLoggedFlag
                0x0000000000041c20                simLoggedData
 COMMON         0x0000000000043c20       0xfd build/cooja/mtype91.a(cooja-radio.o)
                0x0000000000043c20                simOutDataBuffer
                0x0000000000043ca0                simInDataBuffer
 *fill*         0x0000000000043d1d        0x3 
 COMMON         0x0000000000043d20      0x400 build/cooja/mtype91.a(eeprom.o)
                0x0000000000043d20                simEEPROMData
 COMMON         0x0000000000044120        0x1 build/cooja/mtype91.a(sensors.o)
                0x0000000000044120                sensors_event
 COMMON         0x0000000000044121        0x2 build/cooja/mtype91.a(buttons.o)
                0x0000000000044121                simButtonIsDown
                0x0000000000044122                simButtonChanged
 *fill*         0x0000000000044123        0x1 
 COMMON         0x0000000000044124       0x60 build/cooja/mtype91.a(contiki-main.o)
                0x0000000000044124                eb_per_time_source
                0x000000000004413c                unicast_per_neighbor_rpl_storing
                0x0000000000044154                unicast_per_neighbor_rpl_ns
                0x000000000004416c                default_common
 COMMON         0x0000000000044184        0x3 build/cooja/mtype91.a(button-hal.o)
                0x0000000000044184                button_hal_periodic_event
                0x0000000000044185                button_hal_press_event
                0x0000000000044186                button_hal_release_event
 COMMON         0x0000000000044187        0x1 build/cooja/mtype91.a(serial-line.o)
                0x0000000000044187                serial_line_event_message
 COMMON         0x0000000000044188       0x2c build/cooja/mtype91.a(packetbuf.o)
                0x0000000000044188                packetbuf_attrs
                0x00000000000441a4                packetbuf_addrs
 COMMON         0x00000000000441b4        0x8 build/cooja/mtype91.a(linkaddr.o)
                0x00000000000441b4                linkaddr_node_addr
 *fill*         0x00000000000441bc        0x4 
 COMMON         0x00000000000441c0      0x181 build/cooja/mtype91.a(uip-ds6.o)
                0x00000000000441c0                uip_ds6_prefix_list
                0x0000000000044220                uip_ds6_timer_periodic
                0x0000000000044230                uip_ds6_netif_addr_list_offset
                0x0000000000044240                uip_ds6_if
                0x0000000000044338                uip_ds6_timer_ra
                0x0000000000044340                uip_ds6_addr_size
 COMMON         0x0000000000044341        0x1 build/cooja/mtype91.a(tcpip.o)
                0x0000000000044341                tcpip_event
 *fill*         0x0000000000044342       0x1e 
 COMMON         0x0000000000044360      0x228 build/cooja/mtype91.a(uip6.o)
                0x0000000000044360                uip_slen
                0x0000000000044364                uip_lladdr
                0x000000000004436c                uip_appdata
                0x0000000000044370                uip_flags
                0x0000000000044380                uip_aligned_buf
                0x0000000000044470                uip_len
                0x0000000000044474                uip_sappdata
                0x0000000000044480                uip_udp_conns
                0x0000000000044580                uip_udp_conn
                0x0000000000044584                uip_conn
 COMMON         0x0000000000044588       0x10 build/cooja/mtype91.a(rpl.o)
                0x0000000000044588                rpl_multicast_addr
 *fill*         0x0000000000044598        0x8 
 COMMON         0x00000000000445a0       0x20 build/cooja/mtype91.a(link-stats.o)
                0x00000000000445a0                periodic_timer
 COMMON         0x00000000000445c0      0x164 build/cooja/mtype91.a(rpl-dag.o)
                0x00000000000445c0                curr_instance
                0x0000000000044724                . = ALIGN ((. != 0x0)?0x4:0x1)
                0x0000000000044724                . = ALIGN (0x4)
                0x0000000000044724                . = SEGMENT_START ("ldata-segment", .)
                0x0000000000044724                . = ALIGN (0x4)
                0x0000000000044724                _end = .
                [!provide]                        PROVIDE (end, .)
                0x0000000000044724                . = DATA_SEGMENT_END (.)

.stab
 *(.stab)

.stabstr
 *(.stabstr)

.stab.excl
 *(.stab.excl)

.stab.exclstr
 *(.stab.exclstr)

.stab.index
 *(.stab.index)

.stab.indexstr
 *(.stab.indexstr)

.comment        0x0000000000000000       0x35
 *(.comment)
 .comment       0x0000000000000000       0x35 /usr/lib/gcc/i686-linux-gnu/5/crtbeginS.o
                                         0x36 (size before relaxing)
 .comment       0x0000000000000035       0x36 humidity_sensor.o
 .comment       0x0000000000000035       0x36 build/cooja/mtype91.o
 .comment       0x0000000000000035       0x36 build/cooja/mtype91.a(simEnvChange.o)
 .comment       0x0000000000000035       0x36 build/cooja/mtype91.a(cooja_mt.o)
 .comment       0x0000000000000035       0x36 build/cooja/mtype91.a(cooja_mtarch.o)
 .comment       0x0000000000000035       0x36 build/cooja/mtype91.a(rtimer-arch.o)
 .comment       0x0000000000000035       0x36 build/cooja/mtype91.a(beep.o)
 .comment       0x0000000000000035       0x36 build/cooja/mtype91.a(leds-arch.o)
 .comment       0x0000000000000035       0x36 build/cooja/mtype91.a(moteid.o)
 .comment       0x0000000000000035       0x36 build/cooja/mtype91.a(pir-sensor.o)
 .comment       0x0000000000000035       0x36 build/cooja/mtype91.a(rs232.o)
 .comment       0x0000000000000035       0x36 build/cooja/mtype91.a(vib-sensor.o)
 .comment       0x0000000000000035       0x36 build/cooja/mtype91.a(clock.o)
 .comment       0x0000000000000035       0x36 build/cooja/mtype91.a(cooja-log.o)
 .comment       0x0000000000000035       0x36 build/cooja/mtype91.a(cfs-cooja.o)
 .comment       0x0000000000000035       0x36 build/cooja/mtype91.a(cooja-radio.o)
 .comment       0x0000000000000035       0x36 build/cooja/mtype91.a(eeprom.o)
 .comment       0x0000000000000035       0x36 build/cooja/mtype91.a(random.o)
 .comment       0x0000000000000035       0x36 build/cooja/mtype91.a(sensors.o)
 .comment       0x0000000000000035       0x36 build/cooja/mtype91.a(leds.o)
 .comment       0x0000000000000035       0x36 build/cooja/mtype91.a(gpio-hal-arch.o)
 .comment       0x0000000000000035       0x36 build/cooja/mtype91.a(buttons.o)
 .comment       0x0000000000000035       0x36 build/cooja/mtype91.a(res_humidity.o)
 .comment       0x0000000000000035       0x36 build/cooja/mtype91.a(coap-blocking-a)
 .comment       0x0000000000000035       0x36 build/cooja/mtype91.a(coap-engine.o)
 .comment       0x0000000000000035       0x36 build/cooja/mtype91.a(coap-res-well-k)
 .comment       0x0000000000000035       0x36 build/cooja/mtype91.a(coap-observe.o)
 .comment       0x0000000000000035       0x36 build/cooja/mtype91.a(coap-transactio)
 .comment       0x0000000000000035       0x36 build/cooja/mtype91.a(coap-uip.o)
 .comment       0x0000000000000035       0x36 build/cooja/mtype91.a(coap-timer.o)
 .comment       0x0000000000000035       0x36 build/cooja/mtype91.a(coap.o)
 .comment       0x0000000000000035       0x36 build/cooja/mtype91.a(contiki-main.o)
 .comment       0x0000000000000035       0x36 build/cooja/mtype91.a(autostart.o)
 .comment       0x0000000000000035       0x36 build/cooja/mtype91.a(ctimer.o)
 .comment       0x0000000000000035       0x36 build/cooja/mtype91.a(energest.o)
 .comment       0x0000000000000035       0x36 build/cooja/mtype91.a(etimer.o)
 .comment       0x0000000000000035       0x36 build/cooja/mtype91.a(log.o)
 .comment       0x0000000000000035       0x36 build/cooja/mtype91.a(rtimer.o)
 .comment       0x0000000000000035       0x36 build/cooja/mtype91.a(node-id.o)
 .comment       0x0000000000000035       0x36 build/cooja/mtype91.a(process.o)
 .comment       0x0000000000000035       0x36 build/cooja/mtype91.a(timer.o)
 .comment       0x0000000000000035       0x36 build/cooja/mtype91.a(list.o)
 .comment       0x0000000000000035       0x36 build/cooja/mtype91.a(memb.o)
 .comment       0x0000000000000035       0x36 build/cooja/mtype91.a(button-hal.o)
 .comment       0x0000000000000035       0x36 build/cooja/mtype91.a(serial-line.o)
 .comment       0x0000000000000035       0x36 build/cooja/mtype91.a(gpio-hal.o)
 .comment       0x0000000000000035       0x36 build/cooja/mtype91.a(queuebuf.o)
 .comment       0x0000000000000035       0x36 build/cooja/mtype91.a(packetbuf.o)
 .comment       0x0000000000000035       0x36 build/cooja/mtype91.a(netstack.o)
 .comment       0x0000000000000035       0x36 build/cooja/mtype91.a(linkaddr.o)
 .comment       0x0000000000000035       0x36 build/cooja/mtype91.a(csma.o)
 .comment       0x0000000000000035       0x36 build/cooja/mtype91.a(csma-output.o)
 .comment       0x0000000000000035       0x36 build/cooja/mtype91.a(uip-ds6.o)
 .comment       0x0000000000000035       0x36 build/cooja/mtype91.a(tcpip.o)
 .comment       0x0000000000000035       0x36 build/cooja/mtype91.a(uip-udp-packet.)
 .comment       0x0000000000000035       0x36 build/cooja/mtype91.a(uip-ds6-route.o)
 .comment       0x0000000000000035       0x36 build/cooja/mtype91.a(uip-ds6-nbr.o)
 .comment       0x0000000000000035       0x36 build/cooja/mtype91.a(uip6.o)
 .comment       0x0000000000000035       0x36 build/cooja/mtype91.a(uip-nd6.o)
 .comment       0x0000000000000035       0x36 build/cooja/mtype91.a(sicslowpan.o)
 .comment       0x0000000000000035       0x36 build/cooja/mtype91.a(uiplib.o)
 .comment       0x0000000000000035       0x36 build/cooja/mtype91.a(rpl.o)
 .comment       0x0000000000000035       0x36 build/cooja/mtype91.a(rpl-icmp6.o)
 .comment       0x0000000000000035       0x36 build/cooja/mtype91.a(rpl-dag-root.o)
 .comment       0x0000000000000035       0x36 build/cooja/mtype91.a(watchdog.o)
 .comment       0x0000000000000035       0x36 build/cooja/mtype91.a(int-master.o)
 .comment       0x0000000000000035       0x36 build/cooja/mtype91.a(coap-timer-defa)
 .comment       0x0000000000000035       0x36 build/cooja/mtype91.a(stimer.o)
 .comment       0x0000000000000035       0x36 build/cooja/mtype91.a(ringbuf.o)
 .comment       0x0000000000000035       0x36 build/cooja/mtype91.a(assert.o)
 .comment       0x0000000000000035       0x36 build/cooja/mtype91.a(nbr-table.o)
 .comment       0x0000000000000035       0x36 build/cooja/mtype91.a(link-stats.o)
 .comment       0x0000000000000035       0x36 build/cooja/mtype91.a(mac-sequence.o)
 .comment       0x0000000000000035       0x36 build/cooja/mtype91.a(mac.o)
 .comment       0x0000000000000035       0x36 build/cooja/mtype91.a(framer-802154.o)
 .comment       0x0000000000000035       0x36 build/cooja/mtype91.a(frame802154.o)
 .comment       0x0000000000000035       0x36 build/cooja/mtype91.a(csma-security.o)
 .comment       0x0000000000000035       0x36 build/cooja/mtype91.a(uipbuf.o)
 .comment       0x0000000000000035       0x36 build/cooja/mtype91.a(uip-icmp6.o)
 .comment       0x0000000000000035       0x36 build/cooja/mtype91.a(uip-sr.o)
 .comment       0x0000000000000035       0x36 build/cooja/mtype91.a(uip-packetqueue)
 .comment       0x0000000000000035       0x36 build/cooja/mtype91.a(rpl-nbr-policy.)
 .comment       0x0000000000000035       0x36 build/cooja/mtype91.a(rpl-neighbor.o)
 .comment       0x0000000000000035       0x36 build/cooja/mtype91.a(rpl-dag.o)
 .comment       0x0000000000000035       0x36 build/cooja/mtype91.a(rpl-timers.o)
 .comment       0x0000000000000035       0x36 build/cooja/mtype91.a(rpl-ext-header.)
 .comment       0x0000000000000035       0x36 build/cooja/mtype91.a(rpl-mrhof.o)
 .comment       0x0000000000000035       0x36 /usr/lib/gcc/i686-linux-gnu/5/crtendS.o

.debug
 *(.debug)

.line
 *(.line)

.debug_srcinfo
 *(.debug_srcinfo)

.debug_sfnames
 *(.debug_sfnames)

.debug_aranges  0x0000000000000000      0xae0
 *(.debug_aranges)
 .debug_aranges
                0x0000000000000000       0x20 humidity_sensor.o
 .debug_aranges
                0x0000000000000020       0x20 build/cooja/mtype91.o
 .debug_aranges
                0x0000000000000040       0x20 build/cooja/mtype91.a(simEnvChange.o)
 .debug_aranges
                0x0000000000000060       0x20 build/cooja/mtype91.a(cooja_mt.o)
 .debug_aranges
                0x0000000000000080       0x20 build/cooja/mtype91.a(cooja_mtarch.o)
 .debug_aranges
                0x00000000000000a0       0x20 build/cooja/mtype91.a(rtimer-arch.o)
 .debug_aranges
                0x00000000000000c0       0x20 build/cooja/mtype91.a(beep.o)
 .debug_aranges
                0x00000000000000e0       0x20 build/cooja/mtype91.a(leds-arch.o)
 .debug_aranges
                0x0000000000000100       0x20 build/cooja/mtype91.a(moteid.o)
 .debug_aranges
                0x0000000000000120       0x20 build/cooja/mtype91.a(pir-sensor.o)
 .debug_aranges
                0x0000000000000140       0x20 build/cooja/mtype91.a(rs232.o)
 .debug_aranges
                0x0000000000000160       0x20 build/cooja/mtype91.a(vib-sensor.o)
 .debug_aranges
                0x0000000000000180       0x20 build/cooja/mtype91.a(clock.o)
 .debug_aranges
                0x00000000000001a0       0x20 build/cooja/mtype91.a(cooja-log.o)
 .debug_aranges
                0x00000000000001c0       0x20 build/cooja/mtype91.a(cfs-cooja.o)
 .debug_aranges
                0x00000000000001e0       0x20 build/cooja/mtype91.a(cooja-radio.o)
 .debug_aranges
                0x0000000000000200       0x20 build/cooja/mtype91.a(eeprom.o)
 .debug_aranges
                0x0000000000000220       0x20 build/cooja/mtype91.a(random.o)
 .debug_aranges
                0x0000000000000240       0x20 build/cooja/mtype91.a(sensors.o)
 .debug_aranges
                0x0000000000000260       0x20 build/cooja/mtype91.a(leds.o)
 .debug_aranges
                0x0000000000000280       0x20 build/cooja/mtype91.a(gpio-hal-arch.o)
 .debug_aranges
                0x00000000000002a0       0x20 build/cooja/mtype91.a(buttons.o)
 .debug_aranges
                0x00000000000002c0       0x20 build/cooja/mtype91.a(res_humidity.o)
 .debug_aranges
                0x00000000000002e0       0x20 build/cooja/mtype91.a(coap-blocking-a)
 .debug_aranges
                0x0000000000000300       0x20 build/cooja/mtype91.a(coap-engine.o)
 .debug_aranges
                0x0000000000000320       0x20 build/cooja/mtype91.a(coap-res-well-k)
 .debug_aranges
                0x0000000000000340       0x20 build/cooja/mtype91.a(coap-observe.o)
 .debug_aranges
                0x0000000000000360       0x20 build/cooja/mtype91.a(coap-transactio)
 .debug_aranges
                0x0000000000000380       0x20 build/cooja/mtype91.a(coap-uip.o)
 .debug_aranges
                0x00000000000003a0       0x20 build/cooja/mtype91.a(coap-timer.o)
 .debug_aranges
                0x00000000000003c0       0x20 build/cooja/mtype91.a(coap.o)
 .debug_aranges
                0x00000000000003e0       0x20 build/cooja/mtype91.a(contiki-main.o)
 .debug_aranges
                0x0000000000000400       0x20 build/cooja/mtype91.a(autostart.o)
 .debug_aranges
                0x0000000000000420       0x20 build/cooja/mtype91.a(ctimer.o)
 .debug_aranges
                0x0000000000000440       0x20 build/cooja/mtype91.a(energest.o)
 .debug_aranges
                0x0000000000000460       0x20 build/cooja/mtype91.a(etimer.o)
 .debug_aranges
                0x0000000000000480       0x20 build/cooja/mtype91.a(log.o)
 .debug_aranges
                0x00000000000004a0       0x20 build/cooja/mtype91.a(rtimer.o)
 .debug_aranges
                0x00000000000004c0       0x20 build/cooja/mtype91.a(node-id.o)
 .debug_aranges
                0x00000000000004e0       0x20 build/cooja/mtype91.a(process.o)
 .debug_aranges
                0x0000000000000500       0x20 build/cooja/mtype91.a(timer.o)
 .debug_aranges
                0x0000000000000520       0x20 build/cooja/mtype91.a(list.o)
 .debug_aranges
                0x0000000000000540       0x20 build/cooja/mtype91.a(memb.o)
 .debug_aranges
                0x0000000000000560       0x20 build/cooja/mtype91.a(button-hal.o)
 .debug_aranges
                0x0000000000000580       0x20 build/cooja/mtype91.a(serial-line.o)
 .debug_aranges
                0x00000000000005a0       0x20 build/cooja/mtype91.a(gpio-hal.o)
 .debug_aranges
                0x00000000000005c0       0x20 build/cooja/mtype91.a(queuebuf.o)
 .debug_aranges
                0x00000000000005e0       0x20 build/cooja/mtype91.a(packetbuf.o)
 .debug_aranges
                0x0000000000000600       0x20 build/cooja/mtype91.a(netstack.o)
 .debug_aranges
                0x0000000000000620       0x20 build/cooja/mtype91.a(linkaddr.o)
 .debug_aranges
                0x0000000000000640       0x20 build/cooja/mtype91.a(csma.o)
 .debug_aranges
                0x0000000000000660       0x20 build/cooja/mtype91.a(csma-output.o)
 .debug_aranges
                0x0000000000000680       0x20 build/cooja/mtype91.a(uip-ds6.o)
 .debug_aranges
                0x00000000000006a0       0x20 build/cooja/mtype91.a(tcpip.o)
 .debug_aranges
                0x00000000000006c0       0x20 build/cooja/mtype91.a(uip-udp-packet.)
 .debug_aranges
                0x00000000000006e0       0x20 build/cooja/mtype91.a(uip-ds6-route.o)
 .debug_aranges
                0x0000000000000700       0x20 build/cooja/mtype91.a(uip-ds6-nbr.o)
 .debug_aranges
                0x0000000000000720       0x20 build/cooja/mtype91.a(uip6.o)
 .debug_aranges
                0x0000000000000740       0x20 build/cooja/mtype91.a(uip-nd6.o)
 .debug_aranges
                0x0000000000000760       0x20 build/cooja/mtype91.a(sicslowpan.o)
 .debug_aranges
                0x0000000000000780       0x20 build/cooja/mtype91.a(uiplib.o)
 .debug_aranges
                0x00000000000007a0       0x20 build/cooja/mtype91.a(rpl.o)
 .debug_aranges
                0x00000000000007c0       0x20 build/cooja/mtype91.a(rpl-icmp6.o)
 .debug_aranges
                0x00000000000007e0       0x20 build/cooja/mtype91.a(rpl-dag-root.o)
 .debug_aranges
                0x0000000000000800       0x20 build/cooja/mtype91.a(watchdog.o)
 .debug_aranges
                0x0000000000000820       0x20 build/cooja/mtype91.a(int-master.o)
 .debug_aranges
                0x0000000000000840       0x20 build/cooja/mtype91.a(coap-timer-defa)
 .debug_aranges
                0x0000000000000860       0x20 build/cooja/mtype91.a(stimer.o)
 .debug_aranges
                0x0000000000000880       0x20 build/cooja/mtype91.a(ringbuf.o)
 .debug_aranges
                0x00000000000008a0       0x20 build/cooja/mtype91.a(assert.o)
 .debug_aranges
                0x00000000000008c0       0x20 build/cooja/mtype91.a(nbr-table.o)
 .debug_aranges
                0x00000000000008e0       0x20 build/cooja/mtype91.a(link-stats.o)
 .debug_aranges
                0x0000000000000900       0x20 build/cooja/mtype91.a(mac-sequence.o)
 .debug_aranges
                0x0000000000000920       0x20 build/cooja/mtype91.a(mac.o)
 .debug_aranges
                0x0000000000000940       0x20 build/cooja/mtype91.a(framer-802154.o)
 .debug_aranges
                0x0000000000000960       0x20 build/cooja/mtype91.a(frame802154.o)
 .debug_aranges
                0x0000000000000980       0x20 build/cooja/mtype91.a(csma-security.o)
 .debug_aranges
                0x00000000000009a0       0x20 build/cooja/mtype91.a(uipbuf.o)
 .debug_aranges
                0x00000000000009c0       0x20 build/cooja/mtype91.a(uip-icmp6.o)
 .debug_aranges
                0x00000000000009e0       0x20 build/cooja/mtype91.a(uip-sr.o)
 .debug_aranges
                0x0000000000000a00       0x20 build/cooja/mtype91.a(uip-packetqueue)
 .debug_aranges
                0x0000000000000a20       0x20 build/cooja/mtype91.a(rpl-nbr-policy.)
 .debug_aranges
                0x0000000000000a40       0x20 build/cooja/mtype91.a(rpl-neighbor.o)
 .debug_aranges
                0x0000000000000a60       0x20 build/cooja/mtype91.a(rpl-dag.o)
 .debug_aranges
                0x0000000000000a80       0x20 build/cooja/mtype91.a(rpl-timers.o)
 .debug_aranges
                0x0000000000000aa0       0x20 build/cooja/mtype91.a(rpl-ext-header.)
 .debug_aranges
                0x0000000000000ac0       0x20 build/cooja/mtype91.a(rpl-mrhof.o)

.debug_pubnames
 *(.debug_pubnames)

.debug_info     0x0000000000000000    0x26dc1
 *(.debug_info .gnu.linkonce.wi.*)
 .debug_info    0x0000000000000000      0xb98 humidity_sensor.o
 .debug_info    0x0000000000000b98     0x325a build/cooja/mtype91.o
 .debug_info    0x0000000000003df2      0x15a build/cooja/mtype91.a(simEnvChange.o)
 .debug_info    0x0000000000003f4c      0x1af build/cooja/mtype91.a(cooja_mt.o)
 .debug_info    0x00000000000040fb      0x212 build/cooja/mtype91.a(cooja_mtarch.o)
 .debug_info    0x000000000000430d      0x181 build/cooja/mtype91.a(rtimer-arch.o)
 .debug_info    0x000000000000448e      0x1fa build/cooja/mtype91.a(beep.o)
 .debug_info    0x0000000000004688      0x194 build/cooja/mtype91.a(leds-arch.o)
 .debug_info    0x000000000000481c      0x111 build/cooja/mtype91.a(moteid.o)
 .debug_info    0x000000000000492d      0x21d build/cooja/mtype91.a(pir-sensor.o)
 .debug_info    0x0000000000004b4a      0x21e build/cooja/mtype91.a(rs232.o)
 .debug_info    0x0000000000004d68      0x21d build/cooja/mtype91.a(vib-sensor.o)
 .debug_info    0x0000000000004f85      0x159 build/cooja/mtype91.a(clock.o)
 .debug_info    0x00000000000050de      0x2bb build/cooja/mtype91.a(cooja-log.o)
 .debug_info    0x0000000000005399      0x3cf build/cooja/mtype91.a(cfs-cooja.o)
 .debug_info    0x0000000000005768      0xb0a build/cooja/mtype91.a(cooja-radio.o)
 .debug_info    0x0000000000006272      0x1d5 build/cooja/mtype91.a(eeprom.o)
 .debug_info    0x0000000000006447       0xb3 build/cooja/mtype91.a(random.o)
 .debug_info    0x00000000000064fa      0x36d build/cooja/mtype91.a(sensors.o)
 .debug_info    0x0000000000006867      0x28a build/cooja/mtype91.a(leds.o)
 .debug_info    0x0000000000006af1      0x40e build/cooja/mtype91.a(gpio-hal-arch.o)
 .debug_info    0x0000000000006eff      0x4bc build/cooja/mtype91.a(buttons.o)
 .debug_info    0x00000000000073bb      0x8c1 build/cooja/mtype91.a(res_humidity.o)
 .debug_info    0x0000000000007c7c      0x836 build/cooja/mtype91.a(coap-blocking-a)
 .debug_info    0x00000000000084b2      0xe93 build/cooja/mtype91.a(coap-engine.o)
 .debug_info    0x0000000000009345      0x8a4 build/cooja/mtype91.a(coap-res-well-k)
 .debug_info    0x0000000000009be9      0xdd0 build/cooja/mtype91.a(coap-observe.o)
 .debug_info    0x000000000000a9b9      0x862 build/cooja/mtype91.a(coap-transactio)
 .debug_info    0x000000000000b21b      0xe43 build/cooja/mtype91.a(coap-uip.o)
 .debug_info    0x000000000000c05e      0x2f1 build/cooja/mtype91.a(coap-timer.o)
 .debug_info    0x000000000000c34f     0x14c2 build/cooja/mtype91.a(coap.o)
 .debug_info    0x000000000000d811      0xf4f build/cooja/mtype91.a(contiki-main.o)
 .debug_info    0x000000000000e760      0x1ac build/cooja/mtype91.a(autostart.o)
 .debug_info    0x000000000000e90c      0x473 build/cooja/mtype91.a(ctimer.o)
 .debug_info    0x000000000000ed7f       0xbc build/cooja/mtype91.a(energest.o)
 .debug_info    0x000000000000ee3b      0x49f build/cooja/mtype91.a(etimer.o)
 .debug_info    0x000000000000f2da      0x483 build/cooja/mtype91.a(log.o)
 .debug_info    0x000000000000f75d      0x1c1 build/cooja/mtype91.a(rtimer.o)
 .debug_info    0x000000000000f91e       0xfb build/cooja/mtype91.a(node-id.o)
 .debug_info    0x000000000000fa19      0x4ab build/cooja/mtype91.a(process.o)
 .debug_info    0x000000000000fec4      0x17a build/cooja/mtype91.a(timer.o)
 .debug_info    0x000000000001003e      0x38b build/cooja/mtype91.a(list.o)
 .debug_info    0x00000000000103c9      0x1e4 build/cooja/mtype91.a(memb.o)
 .debug_info    0x00000000000105ad      0x60c build/cooja/mtype91.a(button-hal.o)
 .debug_info    0x0000000000010bb9      0x2de build/cooja/mtype91.a(serial-line.o)
 .debug_info    0x0000000000010e97      0x25d build/cooja/mtype91.a(gpio-hal.o)
 .debug_info    0x00000000000110f4      0x570 build/cooja/mtype91.a(queuebuf.o)
 .debug_info    0x0000000000011664      0x553 build/cooja/mtype91.a(packetbuf.o)
 .debug_info    0x0000000000011bb7      0x56a build/cooja/mtype91.a(netstack.o)
 .debug_info    0x0000000000012121      0x18b build/cooja/mtype91.a(linkaddr.o)
 .debug_info    0x00000000000122ac      0x68e build/cooja/mtype91.a(csma.o)
 .debug_info    0x000000000001293a      0xc80 build/cooja/mtype91.a(csma-output.o)
 .debug_info    0x00000000000135ba      0xae8 build/cooja/mtype91.a(uip-ds6.o)
 .debug_info    0x00000000000140a2      0xf38 build/cooja/mtype91.a(tcpip.o)
 .debug_info    0x0000000000014fda      0x377 build/cooja/mtype91.a(uip-udp-packet.)
 .debug_info    0x0000000000015351      0xdb7 build/cooja/mtype91.a(uip-ds6-route.o)
 .debug_info    0x0000000000016108      0xb93 build/cooja/mtype91.a(uip-ds6-nbr.o)
 .debug_info    0x0000000000016c9b     0x1167 build/cooja/mtype91.a(uip6.o)
 .debug_info    0x0000000000017e02      0x7f6 build/cooja/mtype91.a(uip-nd6.o)
 .debug_info    0x00000000000185f8     0x171e build/cooja/mtype91.a(sicslowpan.o)
 .debug_info    0x0000000000019d16      0x30b build/cooja/mtype91.a(uiplib.o)
 .debug_info    0x000000000001a021     0x10b8 build/cooja/mtype91.a(rpl.o)
 .debug_info    0x000000000001b0d9     0x1060 build/cooja/mtype91.a(rpl-icmp6.o)
 .debug_info    0x000000000001c139      0xb33 build/cooja/mtype91.a(rpl-dag-root.o)
 .debug_info    0x000000000001cc6c       0xda build/cooja/mtype91.a(watchdog.o)
 .debug_info    0x000000000001cd46      0x119 build/cooja/mtype91.a(int-master.o)
 .debug_info    0x000000000001ce5f      0x330 build/cooja/mtype91.a(coap-timer-defa)
 .debug_info    0x000000000001d18f      0x187 build/cooja/mtype91.a(stimer.o)
 .debug_info    0x000000000001d316      0x1b8 build/cooja/mtype91.a(ringbuf.o)
 .debug_info    0x000000000001d4ce       0xb3 build/cooja/mtype91.a(assert.o)
 .debug_info    0x000000000001d581      0x957 build/cooja/mtype91.a(nbr-table.o)
 .debug_info    0x000000000001ded8      0x67b build/cooja/mtype91.a(link-stats.o)
 .debug_info    0x000000000001e553      0x213 build/cooja/mtype91.a(mac-sequence.o)
 .debug_info    0x000000000001e766       0xf3 build/cooja/mtype91.a(mac.o)
 .debug_info    0x000000000001e859      0x512 build/cooja/mtype91.a(framer-802154.o)
 .debug_info    0x000000000001ed6b      0x738 build/cooja/mtype91.a(frame802154.o)
 .debug_info    0x000000000001f4a3      0x166 build/cooja/mtype91.a(csma-security.o)
 .debug_info    0x000000000001f609      0x575 build/cooja/mtype91.a(uipbuf.o)
 .debug_info    0x000000000001fb7e      0xd45 build/cooja/mtype91.a(uip-icmp6.o)
 .debug_info    0x00000000000208c3      0xb2e build/cooja/mtype91.a(uip-sr.o)
 .debug_info    0x00000000000213f1      0x474 build/cooja/mtype91.a(uip-packetqueue)
 .debug_info    0x0000000000021865      0xc09 build/cooja/mtype91.a(rpl-nbr-policy.)
 .debug_info    0x000000000002246e      0xe65 build/cooja/mtype91.a(rpl-neighbor.o)
 .debug_info    0x00000000000232d3      0xfe3 build/cooja/mtype91.a(rpl-dag.o)
 .debug_info    0x00000000000242b6      0xcbb build/cooja/mtype91.a(rpl-timers.o)
 .debug_info    0x0000000000024f71     0x1491 build/cooja/mtype91.a(rpl-ext-header.)
 .debug_info    0x0000000000026402      0x9bf build/cooja/mtype91.a(rpl-mrhof.o)

.debug_abbrev   0x0000000000000000     0x9016
 *(.debug_abbrev)
 .debug_abbrev  0x0000000000000000      0x1fc humidity_sensor.o
 .debug_abbrev  0x00000000000001fc      0x27e build/cooja/mtype91.o
 .debug_abbrev  0x000000000000047a       0xc3 build/cooja/mtype91.a(simEnvChange.o)
 .debug_abbrev  0x000000000000053d       0xe6 build/cooja/mtype91.a(cooja_mt.o)
 .debug_abbrev  0x0000000000000623      0x11e build/cooja/mtype91.a(cooja_mtarch.o)
 .debug_abbrev  0x0000000000000741       0xeb build/cooja/mtype91.a(rtimer-arch.o)
 .debug_abbrev  0x000000000000082c       0xe3 build/cooja/mtype91.a(beep.o)
 .debug_abbrev  0x000000000000090f       0xe0 build/cooja/mtype91.a(leds-arch.o)
 .debug_abbrev  0x00000000000009ef       0x9c build/cooja/mtype91.a(moteid.o)
 .debug_abbrev  0x0000000000000a8b       0xe6 build/cooja/mtype91.a(pir-sensor.o)
 .debug_abbrev  0x0000000000000b71      0x14a build/cooja/mtype91.a(rs232.o)
 .debug_abbrev  0x0000000000000cbb       0xe6 build/cooja/mtype91.a(vib-sensor.o)
 .debug_abbrev  0x0000000000000da1       0xee build/cooja/mtype91.a(clock.o)
 .debug_abbrev  0x0000000000000e8f      0x141 build/cooja/mtype91.a(cooja-log.o)
 .debug_abbrev  0x0000000000000fd0      0x139 build/cooja/mtype91.a(cfs-cooja.o)
 .debug_abbrev  0x0000000000001109      0x2ef build/cooja/mtype91.a(cooja-radio.o)
 .debug_abbrev  0x00000000000013f8       0xf5 build/cooja/mtype91.a(eeprom.o)
 .debug_abbrev  0x00000000000014ed       0x6d build/cooja/mtype91.a(random.o)
 .debug_abbrev  0x000000000000155a      0x1c2 build/cooja/mtype91.a(sensors.o)
 .debug_abbrev  0x000000000000171c       0xfc build/cooja/mtype91.a(leds.o)
 .debug_abbrev  0x0000000000001818      0x115 build/cooja/mtype91.a(gpio-hal-arch.o)
 .debug_abbrev  0x000000000000192d      0x16f build/cooja/mtype91.a(buttons.o)
 .debug_abbrev  0x0000000000001a9c      0x195 build/cooja/mtype91.a(res_humidity.o)
 .debug_abbrev  0x0000000000001c31      0x1c3 build/cooja/mtype91.a(coap-blocking-a)
 .debug_abbrev  0x0000000000001df4      0x2d5 build/cooja/mtype91.a(coap-engine.o)
 .debug_abbrev  0x00000000000020c9      0x169 build/cooja/mtype91.a(coap-res-well-k)
 .debug_abbrev  0x0000000000002232      0x234 build/cooja/mtype91.a(coap-observe.o)
 .debug_abbrev  0x0000000000002466      0x1c4 build/cooja/mtype91.a(coap-transactio)
 .debug_abbrev  0x000000000000262a      0x36f build/cooja/mtype91.a(coap-uip.o)
 .debug_abbrev  0x0000000000002999      0x155 build/cooja/mtype91.a(coap-timer.o)
 .debug_abbrev  0x0000000000002aee      0x23c build/cooja/mtype91.a(coap.o)
 .debug_abbrev  0x0000000000002d2a      0x1e6 build/cooja/mtype91.a(contiki-main.o)
 .debug_abbrev  0x0000000000002f10       0xfb build/cooja/mtype91.a(autostart.o)
 .debug_abbrev  0x000000000000300b      0x1a1 build/cooja/mtype91.a(ctimer.o)
 .debug_abbrev  0x00000000000031ac       0x69 build/cooja/mtype91.a(energest.o)
 .debug_abbrev  0x0000000000003215      0x1f8 build/cooja/mtype91.a(etimer.o)
 .debug_abbrev  0x000000000000340d      0x159 build/cooja/mtype91.a(log.o)
 .debug_abbrev  0x0000000000003566      0x126 build/cooja/mtype91.a(rtimer.o)
 .debug_abbrev  0x000000000000368c       0x9d build/cooja/mtype91.a(node-id.o)
 .debug_abbrev  0x0000000000003729      0x244 build/cooja/mtype91.a(process.o)
 .debug_abbrev  0x000000000000396d       0xdb build/cooja/mtype91.a(timer.o)
 .debug_abbrev  0x0000000000003a48      0x136 build/cooja/mtype91.a(list.o)
 .debug_abbrev  0x0000000000003b7e       0xe4 build/cooja/mtype91.a(memb.o)
 .debug_abbrev  0x0000000000003c62      0x1ea build/cooja/mtype91.a(button-hal.o)
 .debug_abbrev  0x0000000000003e4c      0x190 build/cooja/mtype91.a(serial-line.o)
 .debug_abbrev  0x0000000000003fdc       0xd4 build/cooja/mtype91.a(gpio-hal.o)
 .debug_abbrev  0x00000000000040b0      0x1a6 build/cooja/mtype91.a(queuebuf.o)
 .debug_abbrev  0x0000000000004256      0x1da build/cooja/mtype91.a(packetbuf.o)
 .debug_abbrev  0x0000000000004430      0x1d5 build/cooja/mtype91.a(netstack.o)
 .debug_abbrev  0x0000000000004605       0xf2 build/cooja/mtype91.a(linkaddr.o)
 .debug_abbrev  0x00000000000046f7      0x1ff build/cooja/mtype91.a(csma.o)
 .debug_abbrev  0x00000000000048f6      0x269 build/cooja/mtype91.a(csma-output.o)
 .debug_abbrev  0x0000000000004b5f      0x272 build/cooja/mtype91.a(uip-ds6.o)
 .debug_abbrev  0x0000000000004dd1      0x39e build/cooja/mtype91.a(tcpip.o)
 .debug_abbrev  0x000000000000516f      0x18c build/cooja/mtype91.a(uip-udp-packet.)
 .debug_abbrev  0x00000000000052fb      0x321 build/cooja/mtype91.a(uip-ds6-route.o)
 .debug_abbrev  0x000000000000561c      0x28c build/cooja/mtype91.a(uip-ds6-nbr.o)
 .debug_abbrev  0x00000000000058a8      0x2c3 build/cooja/mtype91.a(uip6.o)
 .debug_abbrev  0x0000000000005b6b      0x229 build/cooja/mtype91.a(uip-nd6.o)
 .debug_abbrev  0x0000000000005d94      0x2d9 build/cooja/mtype91.a(sicslowpan.o)
 .debug_abbrev  0x000000000000606d      0x11d build/cooja/mtype91.a(uiplib.o)
 .debug_abbrev  0x000000000000618a      0x2c9 build/cooja/mtype91.a(rpl.o)
 .debug_abbrev  0x0000000000006453      0x2fa build/cooja/mtype91.a(rpl-icmp6.o)
 .debug_abbrev  0x000000000000674d      0x21b build/cooja/mtype91.a(rpl-dag-root.o)
 .debug_abbrev  0x0000000000006968       0x6b build/cooja/mtype91.a(watchdog.o)
 .debug_abbrev  0x00000000000069d3       0xcc build/cooja/mtype91.a(int-master.o)
 .debug_abbrev  0x0000000000006a9f      0x184 build/cooja/mtype91.a(coap-timer-defa)
 .debug_abbrev  0x0000000000006c23       0xbf build/cooja/mtype91.a(stimer.o)
 .debug_abbrev  0x0000000000006ce2       0xdb build/cooja/mtype91.a(ringbuf.o)
 .debug_abbrev  0x0000000000006dbd       0x61 build/cooja/mtype91.a(assert.o)
 .debug_abbrev  0x0000000000006e1e      0x1f8 build/cooja/mtype91.a(nbr-table.o)
 .debug_abbrev  0x0000000000007016      0x222 build/cooja/mtype91.a(link-stats.o)
 .debug_abbrev  0x0000000000007238       0xed build/cooja/mtype91.a(mac-sequence.o)
 .debug_abbrev  0x0000000000007325       0x8d build/cooja/mtype91.a(mac.o)
 .debug_abbrev  0x00000000000073b2      0x16c build/cooja/mtype91.a(framer-802154.o)
 .debug_abbrev  0x000000000000751e      0x215 build/cooja/mtype91.a(frame802154.o)
 .debug_abbrev  0x0000000000007733       0xa4 build/cooja/mtype91.a(csma-security.o)
 .debug_abbrev  0x00000000000077d7      0x173 build/cooja/mtype91.a(uipbuf.o)
 .debug_abbrev  0x000000000000794a      0x291 build/cooja/mtype91.a(uip-icmp6.o)
 .debug_abbrev  0x0000000000007bdb      0x24e build/cooja/mtype91.a(uip-sr.o)
 .debug_abbrev  0x0000000000007e29      0x1cb build/cooja/mtype91.a(uip-packetqueue)
 .debug_abbrev  0x0000000000007ff4      0x256 build/cooja/mtype91.a(rpl-nbr-policy.)
 .debug_abbrev  0x000000000000824a      0x314 build/cooja/mtype91.a(rpl-neighbor.o)
 .debug_abbrev  0x000000000000855e      0x34c build/cooja/mtype91.a(rpl-dag.o)
 .debug_abbrev  0x00000000000088aa      0x297 build/cooja/mtype91.a(rpl-timers.o)
 .debug_abbrev  0x0000000000008b41      0x2f0 build/cooja/mtype91.a(rpl-ext-header.)
 .debug_abbrev  0x0000000000008e31      0x1e5 build/cooja/mtype91.a(rpl-mrhof.o)

.debug_line     0x0000000000000000     0x9d0a
 *(.debug_line .debug_line.* .debug_line_end)
 .debug_line    0x0000000000000000      0x27c humidity_sensor.o
 .debug_line    0x000000000000027c      0x2ed build/cooja/mtype91.o
 .debug_line    0x0000000000000569       0xe3 build/cooja/mtype91.a(simEnvChange.o)
 .debug_line    0x000000000000064c       0xc2 build/cooja/mtype91.a(cooja_mt.o)
 .debug_line    0x000000000000070e       0xbf build/cooja/mtype91.a(cooja_mtarch.o)
 .debug_line    0x00000000000007cd       0xd1 build/cooja/mtype91.a(rtimer-arch.o)
 .debug_line    0x000000000000089e       0xd2 build/cooja/mtype91.a(beep.o)
 .debug_line    0x0000000000000970       0xd8 build/cooja/mtype91.a(leds-arch.o)
 .debug_line    0x0000000000000a48       0x8f build/cooja/mtype91.a(moteid.o)
 .debug_line    0x0000000000000ad7       0xc5 build/cooja/mtype91.a(pir-sensor.o)
 .debug_line    0x0000000000000b9c       0xd0 build/cooja/mtype91.a(rs232.o)
 .debug_line    0x0000000000000c6c       0xc5 build/cooja/mtype91.a(vib-sensor.o)
 .debug_line    0x0000000000000d31       0xc3 build/cooja/mtype91.a(clock.o)
 .debug_line    0x0000000000000df4      0x11f build/cooja/mtype91.a(cooja-log.o)
 .debug_line    0x0000000000000f13      0x112 build/cooja/mtype91.a(cfs-cooja.o)
 .debug_line    0x0000000000001025      0x286 build/cooja/mtype91.a(cooja-radio.o)
 .debug_line    0x00000000000012ab       0xc4 build/cooja/mtype91.a(eeprom.o)
 .debug_line    0x000000000000136f       0x4a build/cooja/mtype91.a(random.o)
 .debug_line    0x00000000000013b9      0x11a build/cooja/mtype91.a(sensors.o)
 .debug_line    0x00000000000014d3      0x122 build/cooja/mtype91.a(leds.o)
 .debug_line    0x00000000000015f5      0x157 build/cooja/mtype91.a(gpio-hal-arch.o)
 .debug_line    0x000000000000174c      0x17f build/cooja/mtype91.a(buttons.o)
 .debug_line    0x00000000000018cb      0x13d build/cooja/mtype91.a(res_humidity.o)
 .debug_line    0x0000000000001a08      0x1f0 build/cooja/mtype91.a(coap-blocking-a)
 .debug_line    0x0000000000001bf8      0x33f build/cooja/mtype91.a(coap-engine.o)
 .debug_line    0x0000000000001f37      0x202 build/cooja/mtype91.a(coap-res-well-k)
 .debug_line    0x0000000000002139      0x2f6 build/cooja/mtype91.a(coap-observe.o)
 .debug_line    0x000000000000242f      0x1cc build/cooja/mtype91.a(coap-transactio)
 .debug_line    0x00000000000025fb      0x364 build/cooja/mtype91.a(coap-uip.o)
 .debug_line    0x000000000000295f      0x103 build/cooja/mtype91.a(coap-timer.o)
 .debug_line    0x0000000000002a62      0x551 build/cooja/mtype91.a(coap.o)
 .debug_line    0x0000000000002fb3      0x381 build/cooja/mtype91.a(contiki-main.o)
 .debug_line    0x0000000000003334       0x97 build/cooja/mtype91.a(autostart.o)
 .debug_line    0x00000000000033cb      0x16f build/cooja/mtype91.a(ctimer.o)
 .debug_line    0x000000000000353a       0x67 build/cooja/mtype91.a(energest.o)
 .debug_line    0x00000000000035a1      0x198 build/cooja/mtype91.a(etimer.o)
 .debug_line    0x0000000000003739      0x158 build/cooja/mtype91.a(log.o)
 .debug_line    0x0000000000003891       0x89 build/cooja/mtype91.a(rtimer.o)
 .debug_line    0x000000000000391a       0x7e build/cooja/mtype91.a(node-id.o)
 .debug_line    0x0000000000003998      0x181 build/cooja/mtype91.a(process.o)
 .debug_line    0x0000000000003b19       0x9b build/cooja/mtype91.a(timer.o)
 .debug_line    0x0000000000003bb4      0x113 build/cooja/mtype91.a(list.o)
 .debug_line    0x0000000000003cc7       0xbc build/cooja/mtype91.a(memb.o)
 .debug_line    0x0000000000003d83      0x205 build/cooja/mtype91.a(button-hal.o)
 .debug_line    0x0000000000003f88      0x11e build/cooja/mtype91.a(serial-line.o)
 .debug_line    0x00000000000040a6       0xb8 build/cooja/mtype91.a(gpio-hal.o)
 .debug_line    0x000000000000415e       0xee build/cooja/mtype91.a(queuebuf.o)
 .debug_line    0x000000000000424c      0x10c build/cooja/mtype91.a(packetbuf.o)
 .debug_line    0x0000000000004358      0x11d build/cooja/mtype91.a(netstack.o)
 .debug_line    0x0000000000004475       0x77 build/cooja/mtype91.a(linkaddr.o)
 .debug_line    0x00000000000044ec      0x18a build/cooja/mtype91.a(csma.o)
 .debug_line    0x0000000000004676      0x359 build/cooja/mtype91.a(csma-output.o)
 .debug_line    0x00000000000049cf      0x348 build/cooja/mtype91.a(uip-ds6.o)
 .debug_line    0x0000000000004d17      0x322 build/cooja/mtype91.a(tcpip.o)
 .debug_line    0x0000000000005039       0xd2 build/cooja/mtype91.a(uip-udp-packet.)
 .debug_line    0x000000000000510b      0x339 build/cooja/mtype91.a(uip-ds6-route.o)
 .debug_line    0x0000000000005444      0x27e build/cooja/mtype91.a(uip-ds6-nbr.o)
 .debug_line    0x00000000000056c2      0x574 build/cooja/mtype91.a(uip6.o)
 .debug_line    0x0000000000005c36      0x2af build/cooja/mtype91.a(uip-nd6.o)
 .debug_line    0x0000000000005ee5      0x9c7 build/cooja/mtype91.a(sicslowpan.o)
 .debug_line    0x00000000000068ac      0x1cb build/cooja/mtype91.a(uiplib.o)
 .debug_line    0x0000000000006a77      0x2eb build/cooja/mtype91.a(rpl.o)
 .debug_line    0x0000000000006d62      0x40a build/cooja/mtype91.a(rpl-icmp6.o)
 .debug_line    0x000000000000716c      0x1d4 build/cooja/mtype91.a(rpl-dag-root.o)
 .debug_line    0x0000000000007340       0x95 build/cooja/mtype91.a(watchdog.o)
 .debug_line    0x00000000000073d5       0x9b build/cooja/mtype91.a(int-master.o)
 .debug_line    0x0000000000007470      0x153 build/cooja/mtype91.a(coap-timer-defa)
 .debug_line    0x00000000000075c3       0x74 build/cooja/mtype91.a(stimer.o)
 .debug_line    0x0000000000007637       0x97 build/cooja/mtype91.a(ringbuf.o)
 .debug_line    0x00000000000076ce       0x48 build/cooja/mtype91.a(assert.o)
 .debug_line    0x0000000000007716      0x243 build/cooja/mtype91.a(nbr-table.o)
 .debug_line    0x0000000000007959      0x200 build/cooja/mtype91.a(link-stats.o)
 .debug_line    0x0000000000007b59      0x10e build/cooja/mtype91.a(mac-sequence.o)
 .debug_line    0x0000000000007c67       0x53 build/cooja/mtype91.a(mac.o)
 .debug_line    0x0000000000007cba      0x17a build/cooja/mtype91.a(framer-802154.o)
 .debug_line    0x0000000000007e34      0x2bb build/cooja/mtype91.a(frame802154.o)
 .debug_line    0x00000000000080ef       0xaf build/cooja/mtype91.a(csma-security.o)
 .debug_line    0x000000000000819e      0x149 build/cooja/mtype91.a(uipbuf.o)
 .debug_line    0x00000000000082e7      0x2d7 build/cooja/mtype91.a(uip-icmp6.o)
 .debug_line    0x00000000000085be      0x2e5 build/cooja/mtype91.a(uip-sr.o)
 .debug_line    0x00000000000088a3      0x15e build/cooja/mtype91.a(uip-packetqueue)
 .debug_line    0x0000000000008a01      0x1d8 build/cooja/mtype91.a(rpl-nbr-policy.)
 .debug_line    0x0000000000008bd9      0x370 build/cooja/mtype91.a(rpl-neighbor.o)
 .debug_line    0x0000000000008f49      0x40a build/cooja/mtype91.a(rpl-dag.o)
 .debug_line    0x0000000000009353      0x2f0 build/cooja/mtype91.a(rpl-timers.o)
 .debug_line    0x0000000000009643      0x46e build/cooja/mtype91.a(rpl-ext-header.)
 .debug_line    0x0000000000009ab1      0x259 build/cooja/mtype91.a(rpl-mrhof.o)

.debug_frame
 *(.debug_frame)

.debug_str      0x0000000000000000     0x9ab9
 *(.debug_str)
 .debug_str     0x0000000000000000      0x8fa humidity_sensor.o
                                        0xb0e (size before relaxing)
 .debug_str     0x00000000000008fa     0x1764 build/cooja/mtype91.o
                                       0x1959 (size before relaxing)
 .debug_str     0x000000000000205e       0x2d build/cooja/mtype91.a(simEnvChange.o)
                                        0x1f1 (size before relaxing)
 .debug_str     0x000000000000208b       0x55 build/cooja/mtype91.a(cooja_mt.o)
                                        0x1f2 (size before relaxing)
 .debug_str     0x00000000000020e0       0x94 build/cooja/mtype91.a(cooja_mtarch.o)
                                        0x1f7 (size before relaxing)
 .debug_str     0x0000000000002174      0x10c build/cooja/mtype91.a(rtimer-arch.o)
                                        0x244 (size before relaxing)
 .debug_str     0x0000000000002280       0xc3 build/cooja/mtype91.a(beep.o)
                                        0x23b (size before relaxing)
 .debug_str     0x0000000000002343       0x9b build/cooja/mtype91.a(leds-arch.o)
                                        0x248 (size before relaxing)
 .debug_str     0x00000000000023de       0x46 build/cooja/mtype91.a(moteid.o)
                                        0x1f1 (size before relaxing)
 .debug_str     0x0000000000002424       0x54 build/cooja/mtype91.a(pir-sensor.o)
                                        0x228 (size before relaxing)
 .debug_str     0x0000000000002478       0xc0 build/cooja/mtype91.a(rs232.o)
                                        0x27c (size before relaxing)
 .debug_str     0x0000000000002538       0x54 build/cooja/mtype91.a(vib-sensor.o)
                                        0x228 (size before relaxing)
 .debug_str     0x000000000000258c       0x70 build/cooja/mtype91.a(clock.o)
                                        0x21d (size before relaxing)
 .debug_str     0x00000000000025fc       0xd6 build/cooja/mtype91.a(cooja-log.o)
                                        0x2a8 (size before relaxing)
 .debug_str     0x00000000000026d2      0x10b build/cooja/mtype91.a(cfs-cooja.o)
                                        0x2be (size before relaxing)
 .debug_str     0x00000000000027dd      0x777 build/cooja/mtype91.a(cooja-radio.o)
                                        0xa62 (size before relaxing)
 .debug_str     0x0000000000002f54       0x98 build/cooja/mtype91.a(eeprom.o)
                                        0x23e (size before relaxing)
 .debug_str     0x0000000000002fec       0x33 build/cooja/mtype91.a(random.o)
                                        0x156 (size before relaxing)
 .debug_str     0x000000000000301f       0x99 build/cooja/mtype91.a(sensors.o)
                                        0x286 (size before relaxing)
 .debug_str     0x00000000000030b8       0x8a build/cooja/mtype91.a(leds.o)
                                        0x211 (size before relaxing)
 .debug_str     0x0000000000003142      0x2a5 build/cooja/mtype91.a(gpio-hal-arch.o)
                                        0x403 (size before relaxing)
 .debug_str     0x00000000000033e7      0x10c build/cooja/mtype91.a(buttons.o)
                                        0x3bf (size before relaxing)
 .debug_str     0x00000000000034f3      0x3d6 build/cooja/mtype91.a(res_humidity.o)
                                        0xbab (size before relaxing)
 .debug_str     0x00000000000038c9       0xb4 build/cooja/mtype91.a(coap-blocking-a)
                                        0x77b (size before relaxing)
 .debug_str     0x000000000000397d      0x31e build/cooja/mtype91.a(coap-engine.o)
                                        0xe00 (size before relaxing)
 .debug_str     0x0000000000003c9b       0x68 build/cooja/mtype91.a(coap-res-well-k)
                                        0xbdd (size before relaxing)
 .debug_str     0x0000000000003d03      0x1f3 build/cooja/mtype91.a(coap-observe.o)
                                        0xcee (size before relaxing)
 .debug_str     0x0000000000003ef6      0x11c build/cooja/mtype91.a(coap-transactio)
                                        0x82b (size before relaxing)
 .debug_str     0x0000000000004012      0x454 build/cooja/mtype91.a(coap-uip.o)
                                        0x9f1 (size before relaxing)
 .debug_str     0x0000000000004466       0xb7 build/cooja/mtype91.a(coap-timer.o)
                                        0x2a8 (size before relaxing)
 .debug_str     0x000000000000451d      0x5d7 build/cooja/mtype91.a(coap.o)
                                        0xe5a (size before relaxing)
 .debug_str     0x0000000000004af4      0x4ca build/cooja/mtype91.a(contiki-main.o)
                                        0xd2f (size before relaxing)
 .debug_str     0x0000000000004fbe       0x38 build/cooja/mtype91.a(autostart.o)
                                        0x1b2 (size before relaxing)
 .debug_str     0x0000000000004ff6       0xc3 build/cooja/mtype91.a(ctimer.o)
                                        0x2b3 (size before relaxing)
 .debug_str     0x00000000000050b9       0x4d build/cooja/mtype91.a(energest.o)
                                        0x179 (size before relaxing)
 .debug_str     0x0000000000005106      0x136 build/cooja/mtype91.a(etimer.o)
                                        0x326 (size before relaxing)
 .debug_str     0x000000000000523c      0x1b1 build/cooja/mtype91.a(log.o)
                                        0x366 (size before relaxing)
 .debug_str     0x00000000000053ed       0xb0 build/cooja/mtype91.a(rtimer.o)
                                        0x1fd (size before relaxing)
 .debug_str     0x000000000000549d       0x24 build/cooja/mtype91.a(node-id.o)
                                        0x176 (size before relaxing)
 .debug_str     0x00000000000054c1      0x154 build/cooja/mtype91.a(process.o)
                                        0x2e8 (size before relaxing)
 .debug_str     0x0000000000005615       0x15 build/cooja/mtype91.a(timer.o)
                                        0x1a1 (size before relaxing)
 .debug_str     0x000000000000562a       0xb4 build/cooja/mtype91.a(list.o)
                                        0x1f8 (size before relaxing)
 .debug_str     0x00000000000056de       0x5a build/cooja/mtype91.a(memb.o)
                                        0x192 (size before relaxing)
 .debug_str     0x0000000000005738      0x1c9 build/cooja/mtype91.a(button-hal.o)
                                        0x4c7 (size before relaxing)
 .debug_str     0x0000000000005901       0x9a build/cooja/mtype91.a(serial-line.o)
                                        0x271 (size before relaxing)
 .debug_str     0x000000000000599b       0xec build/cooja/mtype91.a(gpio-hal.o)
                                        0x2c7 (size before relaxing)
 .debug_str     0x0000000000005a87      0x1ca build/cooja/mtype91.a(queuebuf.o)
                                        0x4e7 (size before relaxing)
 .debug_str     0x0000000000005c51      0x1b4 build/cooja/mtype91.a(packetbuf.o)
                                        0x524 (size before relaxing)
 .debug_str     0x0000000000005e05      0x167 build/cooja/mtype91.a(netstack.o)
                                        0x452 (size before relaxing)
 .debug_str     0x0000000000005f6c       0x50 build/cooja/mtype91.a(linkaddr.o)
                                        0x1b3 (size before relaxing)
 .debug_str     0x0000000000005fbc       0x8f build/cooja/mtype91.a(csma.o)
                                        0x7aa (size before relaxing)
 .debug_str     0x000000000000604b      0x282 build/cooja/mtype91.a(csma-output.o)
                                        0x84a (size before relaxing)
 .debug_str     0x00000000000062cd      0x3ef build/cooja/mtype91.a(uip-ds6.o)
                                        0x6e4 (size before relaxing)
 .debug_str     0x00000000000066bc      0x2af build/cooja/mtype91.a(tcpip.o)
                                        0x9e6 (size before relaxing)
 .debug_str     0x000000000000696b       0x74 build/cooja/mtype91.a(uip-udp-packet.)
                                        0x284 (size before relaxing)
 .debug_str     0x00000000000069df      0x412 build/cooja/mtype91.a(uip-ds6-route.o)
                                        0x9a1 (size before relaxing)
 .debug_str     0x0000000000006df1      0x1c2 build/cooja/mtype91.a(uip-ds6-nbr.o)
                                        0x883 (size before relaxing)
 .debug_str     0x0000000000006fb3      0x1f7 build/cooja/mtype91.a(uip6.o)
                                        0xa24 (size before relaxing)
 .debug_str     0x00000000000071aa      0x11d build/cooja/mtype91.a(uip-nd6.o)
                                        0x5f0 (size before relaxing)
 .debug_str     0x00000000000072c7      0x589 build/cooja/mtype91.a(sicslowpan.o)
                                        0xf21 (size before relaxing)
 .debug_str     0x0000000000007850       0x90 build/cooja/mtype91.a(uiplib.o)
                                        0x1fd (size before relaxing)
 .debug_str     0x00000000000078e0      0x2b2 build/cooja/mtype91.a(rpl.o)
                                        0xb98 (size before relaxing)
 .debug_str     0x0000000000007b92      0x1dd build/cooja/mtype91.a(rpl-icmp6.o)
                                        0xc58 (size before relaxing)
 .debug_str     0x0000000000007d6f       0xa1 build/cooja/mtype91.a(rpl-dag-root.o)
                                        0x849 (size before relaxing)
 .debug_str     0x0000000000007e10       0x76 build/cooja/mtype91.a(watchdog.o)
                                        0x1ac (size before relaxing)
 .debug_str     0x0000000000007e86       0x88 build/cooja/mtype91.a(int-master.o)
                                        0x1d5 (size before relaxing)
 .debug_str     0x0000000000007f0e       0x6d build/cooja/mtype91.a(coap-timer-defa)
                                        0x295 (size before relaxing)
 .debug_str     0x0000000000007f7b       0x6c build/cooja/mtype91.a(stimer.o)
                                        0x1a5 (size before relaxing)
 .debug_str     0x0000000000007fe7       0x5a build/cooja/mtype91.a(ringbuf.o)
                                        0x1b4 (size before relaxing)
 .debug_str     0x0000000000008041       0x26 build/cooja/mtype91.a(assert.o)
                                        0x14e (size before relaxing)
 .debug_str     0x0000000000008067      0x26c build/cooja/mtype91.a(nbr-table.o)
                                        0x59a (size before relaxing)
 .debug_str     0x00000000000082d3      0x129 build/cooja/mtype91.a(link-stats.o)
                                        0x6ae (size before relaxing)
 .debug_str     0x00000000000083fc       0x70 build/cooja/mtype91.a(mac-sequence.o)
                                        0x374 (size before relaxing)
 .debug_str     0x000000000000846c       0x35 build/cooja/mtype91.a(mac.o)
                                        0x17f (size before relaxing)
 .debug_str     0x00000000000084a1      0x22d build/cooja/mtype91.a(framer-802154.o)
                                        0x5bc (size before relaxing)
 .debug_str     0x00000000000086ce      0x1f2 build/cooja/mtype91.a(frame802154.o)
                                        0x56b (size before relaxing)
 .debug_str     0x00000000000088c0       0x5b build/cooja/mtype91.a(csma-security.o)
                                        0x34c (size before relaxing)
 .debug_str     0x000000000000891b      0x1aa build/cooja/mtype91.a(uipbuf.o)
                                        0x44a (size before relaxing)
 .debug_str     0x0000000000008ac5      0x1ed build/cooja/mtype91.a(uip-icmp6.o)
                                        0x917 (size before relaxing)
 .debug_str     0x0000000000008cb2      0x17b build/cooja/mtype91.a(uip-sr.o)
                                        0x70c (size before relaxing)
 .debug_str     0x0000000000008e2d       0xf3 build/cooja/mtype91.a(uip-packetqueue)
                                        0x336 (size before relaxing)
 .debug_str     0x0000000000008f20       0xa4 build/cooja/mtype91.a(rpl-nbr-policy.)
                                        0x9aa (size before relaxing)
 .debug_str     0x0000000000008fc4      0x28e build/cooja/mtype91.a(rpl-neighbor.o)
                                        0xa20 (size before relaxing)
 .debug_str     0x0000000000009252      0x2d0 build/cooja/mtype91.a(rpl-dag.o)
                                        0xb48 (size before relaxing)
 .debug_str     0x0000000000009522      0x321 build/cooja/mtype91.a(rpl-timers.o)
                                        0xa14 (size before relaxing)
 .debug_str     0x0000000000009843      0x1b2 build/cooja/mtype91.a(rpl-ext-header.)
                                        0xf59 (size before relaxing)
 .debug_str     0x00000000000099f5       0xc4 build/cooja/mtype91.a(rpl-mrhof.o)
                                        0x711 (size before relaxing)

.debug_loc
 *(.debug_loc)

.debug_macinfo
 *(.debug_macinfo)

.debug_weaknames
 *(.debug_weaknames)

.debug_funcnames
 *(.debug_funcnames)

.debug_typenames
 *(.debug_typenames)

.debug_varnames
 *(.debug_varnames)

.debug_pubtypes
 *(.debug_pubtypes)

.debug_ranges   0x0000000000000000      0x100
 *(.debug_ranges)
 .debug_ranges  0x0000000000000000       0x18 build/cooja/mtype91.a(etimer.o)
 .debug_ranges  0x0000000000000018       0x30 build/cooja/mtype91.a(csma-output.o)
 .debug_ranges  0x0000000000000048       0x18 build/cooja/mtype91.a(tcpip.o)
 .debug_ranges  0x0000000000000060       0x28 build/cooja/mtype91.a(uip-nd6.o)
 .debug_ranges  0x0000000000000088       0x48 build/cooja/mtype91.a(sicslowpan.o)
 .debug_ranges  0x00000000000000d0       0x30 build/cooja/mtype91.a(nbr-table.o)

.debug_macro
 *(.debug_macro)

.gnu.attributes
 *(.gnu.attributes)

/DISCARD/
 *(.note.GNU-stack)
 *(.gnu_debuglink)
 *(.gnu.lto_*)
OUTPUT(build/cooja/mtype91.cooja elf32-i386)
